 OUTPUT   = $FF9B
 MENTRY   = $FE0C
 MSTART   = $F97E
 OUTVEC   = $FFEE
 GETCHR   = $FEE9
 SETLOD   = $FE70
 STBUMP   = $FEF7
 BUMP     = $FEF9
 ROLSTR   = $FEDA
 ASCHEX   = $FE93
 CRLF     = $FBF5
 SPCOUT   = $FBE6
 PRDATD   = $FEBD
 QDDATD   = $FEB6
 ENDSTMT  = $A265
 ERROR    = $A280
 FRMNUM   = $A357
 LOFROM   = $FE
 HIFROM   = $FF
 LDFLAG   = $0203
 CHROUTV  = $021A
 CHROUTVH = $021B
 USERLO   = $0233
 USERHI   = $0234
 SRCLINE  = $12
 WORKPTR2 = $DB
 WORKPT2H = $DC
 SAVEX    = $DD
 SAVEY    = $DE
 SAVEA    = $DF
 MODEFLG  = $E0
 ASMIDX   = $E1
 OPRSTAT  = $E3
 ADDRLO   = $E4
 ADDRHI   = $E5
 SYMOFF   = $E6
 WORKPTR  = $E7
 WORKPTRH = $E8
 ASMSTATE = $EB
 CMDDEPTH = $F0
 OPCODE   = $F1
 OPMODE   = $F2
 INSLEN   = $F3
 INSFMT   = $F4
 PAGCNT   = $F7
 ABRTFLG  = $F8
 PCLO     = $F9
 PCHI     = $FA

                            * = $8800
8800   20 8A 88   ENCODER   JSR INSCHOUT
8803   A2 FE                LDX #$FE
8805   9A                   TXS
8806   A2 25                LDX #$25
8808   A0 00                LDY #$00
880A   94 DA      L880A     STY $DA,X
880C   CA                   DEX
880D   D0 FB                BNE L880A
880F   A2 88                LDX #$88
8811   8E 34 02             STX USERHI
8814   8C 33 02             STY USERLO
8817   A6 86                LDX $86
8819   CA                   DEX
881A   86 E8                STX WORKPTRH
881C   CA                   DEX
881D   86 DC                STX WORKPT2H
881F   A9 FF                LDA #$FF
8821   91 E7      L8821     STA (WORKPTR),Y
8823   91 DB                STA (WORKPTR2),Y
8825   88                   DEY
8826   D0 F9                BNE L8821
8828   20 72 8A             JSR PRTPROM
882B   20 E9 FE   CMDLOOP   JSR GETCHR
882E   C9 41                CMP #$41
8830   F0 17                BEQ ASMCMD
8832   C9 44                CMP #$44
8834   F0 0E                BEQ DISCMD
8836   C9 0D                CMP #$0D
8838   D0 F1                BNE CMDLOOP
883A   4C 00 00   GOBASIC   JMP $0000
883D   C9 60      CHROUTH   CMP #$60
883F   F0 BF                BEQ ENCODER
8841   4C 9B FF             JMP OUTPUT
8844   C6 E0      DISCMD    DEC MODEFLG
8846   4C 5E 8D             JMP DISPAGE
8849   C6 F0      ASMCMD    DEC CMDDEPTH
884B   A0 10      PROMPT    LDY #$10
884D   20 72 8A             JSR PRTPROM
8850   20 E9 FE   ASMLOOP   JSR GETCHR
8853   C9 4C                CMP #$4C
8855   F0 21                BEQ ASMTAPE
8857   C9 0D                CMP #$0D
8859   D0 03                BNE ASMMEM
885B   4C 0C FE   GOMON     JMP MENTRY
885E   C9 4D      ASMMEM    CMP #$4D
8860   D0 EE                BNE ASMLOOP
8862   E6 E0                INC MODEFLG
8864   20 97 8A             JSR ASMCHOUT
8867   A9 FD                LDA #$FD
8869   85 E1                STA ASMIDX
886B   A9 99                LDA #$99
886D   85 13                STA SRCLINE+1
886F   A0 00                LDY #$00
8871   84 14                STY $14
8873   A2 12                LDX #$12
8875   4C 80 A2             JMP ERROR
8878   20 EE FF   ASMTAPE   JSR OUTVEC
887B   20 70 FE             JSR SETLOD
887E   20 57 A3             JSR FRMNUM
8881   20 57 A3             JSR FRMNUM
8884   20 57 A3   TAPECONT  JSR FRMNUM
8887   4C 06 8B             JMP ASMNEXT
888A   A9 3D      INSCHOUT  LDA #$3D
888C   8D 1A 02             STA CHROUTV
888F   A9 88                LDA #$88
8891   8D 1B 02             STA CHROUTVH
8894   60                   RTS
8895   18         PRNEXTPC  CLC
8896   65 F3                ADC INSLEN
8898   20 A6 88             JSR PRHEXDEC
889B   F0 10                BEQ L88AD
889D   A5 F9      PRPCHEX   LDA PCLO
889F   20 A6 88             JSR PRHEXDEC
88A2   F0 09                BEQ L88AD
88A4   A5 FA      PRPCHI    LDA PCHI
88A6   A0 00      PRHEXDEC  LDY #$00
88A8   20 F7 FE             JSR STBUMP
88AB   C6 F1                DEC OPCODE
88AD   60         L88AD     RTS
88AE   A9 7F      FINDLBL   LDA #$7F
88B0   A0 04                LDY #$04
88B2   84 E6                STY SYMOFF
88B4   99 E8 00   L88B4     STA WORKPTRH+$0000,Y
88B7   88                   DEY
88B8   D0 FA                BNE L88B4
88BA   E8         L88BA     INX
88BB   B5 13                LDA SRCLINE+1,X
88BD   C9 41                CMP #$41
88BF   B0 08                BCS L88C9
88C1   C9 30                CMP #$30
88C3   90 0D                BCC L88D2
88C5   C9 3A                CMP #$3A
88C7   B0 09                BCS L88D2
88C9   99 E9 00   L88C9     STA WORKPTRH+1+$0000,Y
88CC   C8                   INY
88CD   C0 04                CPY #$04
88CF   90 E9                BCC L88BA
88D1   E8                   INX
88D2   8A         L88D2     TXA
88D3   48                   PHA
88D4   98                   TYA
88D5   F0 19                BEQ LABERR
88D7   A2 04      L88D7     LDX #$04
88D9   A4 E6                LDY SYMOFF
88DB   CA         L88DB     DEX
88DC   30 1F                BMI L88FD
88DE   88                   DEY
88DF   B1 DB                LDA (WORKPTR2),Y
88E1   30 11                BMI L88F4
88E3   D5 E9                CMP WORKPTRH+1,X
88E5   F0 F4                BEQ L88DB
88E7   18                   CLC
88E8   A5 E6                LDA SYMOFF
88EA   69 04                ADC #$04
88EC   85 E6                STA SYMOFF
88EE   90 E7                BCC L88D7
88F0   A9 4C      LABERR    LDA #$4C
88F2   D0 54                BNE STATEXIT
88F4   B5 E9      L88F4     LDA WORKPTRH+1,X
88F6   91 DB                STA (WORKPTR2),Y
88F8   88                   DEY
88F9   CA                   DEX
88FA   10 F8                BPL L88F4
88FC   C8                   INY
88FD   98         L88FD     TYA
88FE   4A                   LSR A
88FF   A8                   TAY
8900   68                   PLA
8901   AA                   TAX
8902   60                   RTS
8903   B5 13      L8903     LDA SRCLINE+1,X
8905   20 93 FE             JSR ASCHEX
8908   30 09                BMI L8913
890A   C9 0A                CMP #$0A
890C   B0 1A                BCS L8928
890E   95 13                STA SRCLINE+1,X
8910   E8                   INX
8911   D0 F0                BNE L8903
8913   86 E2      L8913     STX $E2
8915   A9 01                LDA #$01
8917   85 E3      L8917     STA OPRSTAT
8919   CA                   DEX
891A   B4 13                LDY SRCLINE+1,X
891C   F0 0F                BEQ L892D
891E   C0 0A                CPY #$0A
8920   B0 16                BCS L8938
8922   A5 F9      L8922     LDA PCLO
8924   65 E3                ADC OPRSTAT
8926   85 F9                STA PCLO
8928   B0 5D      L8928     BCS NUMERR
892A   88                   DEY
892B   D0 F5                BNE L8922
892D   A5 E3      L892D     LDA OPRSTAT
892F   0A                   ASL A
8930   85 F0                STA CMDDEPTH
8932   0A                   ASL A
8933   0A                   ASL A
8934   65 F0                ADC CMDDEPTH
8936   D0 DF                BNE L8917
8938   E8         L8938     INX
8939   E4 E2                CPX $E2
893B   F0 4A                BEQ NUMERR
893D   A6 E2                LDX $E2
893F   E6 F1                INC OPCODE
8941   60         L8941     RTS
8942   25 F4      MODEEXIT  AND INSFMT
8944   D0 FB                BNE L8941
8946   A9 4D      MODERR    LDA #$4D
8948   48         STATEXIT  PHA
8949   20 F5 FB             JSR CRLF
894C   20 E6 FB             JSR SPCOUT
894F   68                   PLA
8950   20 EE FF             JSR OUTVEC
8953   A5 E0                LDA MODEFLG
8955   30 08                BMI L895F
8957   A9 00                LDA #$00
8959   8D 03 02             STA LDFLAG
895C   4C 65 A2             JMP ENDSTMT
895F   4C 00 88   L895F     JMP ENCODER
8962   C9 25      L8962     CMP #$25
8964   F0 2B                BEQ L8991
8966   C9 24                CMP #$24
8968   D0 99                BNE L8903
896A   E8         L896A     INX
896B   B5 13                LDA SRCLINE+1,X
896D   20 93 FE             JSR ASCHEX
8970   30 0D                BMI L897F
8972   E6 E3                INC OPRSTAT
8974   86 E2                STX $E2
8976   A2 00                LDX #$00
8978   20 DA FE             JSR ROLSTR
897B   A6 E2                LDX $E2
897D   10 EB                BPL L896A
897F   A5 E3      L897F     LDA OPRSTAT
8981   F0 04                BEQ NUMERR
8983   C9 05                CMP #$05
8985   90 04                BCC L898B
8987   A9 4E      NUMERR    LDA #$4E
8989   D0 BD      L8989     BNE STATEXIT
898B   4A         L898B     LSR A
898C   65 F1                ADC OPCODE
898E   85 F1                STA OPCODE
8990   60                   RTS
8991   E8         L8991     INX
8992   B5 13                LDA SRCLINE+1,X
8994   20 93 FE             JSR ASCHEX
8997   30 0A                BMI L89A3
8999   C9 02                CMP #$02
899B   B0 EA                BCS NUMERR
899D   C8                   INY
899E   4A                   LSR A
899F   26 F9                ROL PCLO
89A1   90 EE                BCC L8991
89A3   98         L89A3     TYA
89A4   F0 E1                BEQ NUMERR
89A6   C9 09                CMP #$09
89A8   B0 DD                BCS NUMERR
89AA   90 21                BCC L89CD
89AC   A0 7F      L89AC     LDY #$7F
89AE   C8         L89AE     INY
89AF   C8                   INY
89B0   C8                   INY
89B1   30 04                BMI L89B7
89B3   A9 4F                LDA #$4F
89B5   D0 D2                BNE L8989
89B7   B1 E7      L89B7     LDA (WORKPTR),Y
89B9   C9 FF                CMP #$FF
89BB   D0 F1                BNE L89AE
89BD   A5 EE                LDA $EE
89BF   91 E7                STA (WORKPTR),Y
89C1   C8                   INY
89C2   A5 FE                LDA LOFROM
89C4   91 E7                STA (WORKPTR),Y
89C6   C8                   INY
89C7   A5 FF                LDA HIFROM
89C9   91 E7                STA (WORKPTR),Y
89CB   E6 F1                INC OPCODE
89CD   E6 F1      L89CD     INC OPCODE
89CF   60                   RTS
89D0   E8         OPRESOLV  INX
89D1   B5 13      OPRCONT   LDA SRCLINE+1,X
89D3   A0 00      OPRSTART  LDY #$00
89D5   84 F9                STY PCLO
89D7   84 FA                STY PCHI
89D9   84 E3                STY OPRSTAT
89DB   C9 3A                CMP #$3A
89DD   D0 83                BNE L8962
89DF   20 AE 88             JSR FINDLBL
89E2   84 E6                STY SYMOFF
89E4   B5 13                LDA SRCLINE+1,X
89E6   C9 2B                CMP #$2B
89E8   D0 09                BNE L89F3
89EA   20 D0 89             JSR OPRESOLV
89ED   C6 F1                DEC OPCODE
89EF   A5 FA                LDA PCHI
89F1   D0 94                BNE NUMERR
89F3   A0 01      L89F3     LDY #$01
89F5   A5 F9                LDA PCLO
89F7   91 FE                STA (LOFROM),Y
89F9   A5 E6                LDA SYMOFF
89FB   B4 13                LDY SRCLINE+1,X
89FD   C0 3E                CPY #$3E
89FF   D0 03                BNE L8A04
8A01   E8                   INX
8A02   09 80                ORA #$80
8A04   85 EE      L8A04     STA $EE
8A06   A4 E6                LDY SYMOFF
8A08   B1 E7                LDA (WORKPTR),Y
8A0A   85 E4                STA ADDRLO
8A0C   C8                   INY
8A0D   B1 E7                LDA (WORKPTR),Y
8A0F   85 E5                STA ADDRHI
8A11   C9 FF                CMP #$FF
8A13   D0 06                BNE OPRVALUE
8A15   A5 E4                LDA ADDRLO
8A17   C9 FF                CMP #$FF
8A19   F0 91                BEQ L89AC
8A1B   20 A2 8A   OPRVALUE  JSR CALCPC
8A1E   A0 01                LDY #$01
8A20   B1 FE                LDA (LOFROM),Y
8A22   18                   CLC
8A23   65 E4                ADC ADDRLO
8A25   85 E4                STA ADDRLO
8A27   90 02                BCC L8A2B
8A29   E6 E5                INC ADDRHI
8A2B   A5 F4      L8A2B     LDA INSFMT
8A2D   C9 01                CMP #$01
8A2F   D0 20                BNE L8A51
8A31   A5 E4                LDA ADDRLO
8A33   E5 F9                SBC PCLO
8A35   A8                   TAY
8A36   88                   DEY
8A37   88                   DEY
8A38   84 F9                STY PCLO
8A3A   A5 E5                LDA ADDRHI
8A3C   E5 FA                SBC PCHI
8A3E   F0 09                BEQ L8A49
8A40   C9 FF                CMP #$FF
8A42   90 08                BCC OORERR
8A44   98                   TYA
8A45   30 86                BMI L89CD
8A47   10 03                BPL OORERR
8A49   98         L8A49     TYA
8A4A   10 81                BPL L89CD
8A4C   A9 52      OORERR    LDA #$52
8A4E   4C 48 89             JMP STATEXIT
8A51   A5 EE      L8A51     LDA $EE
8A53   10 0A                BPL L8A5F
8A55   A5 E4                LDA ADDRLO
8A57   48                   PHA
8A58   A5 E5                LDA ADDRHI
8A5A   85 E4                STA ADDRLO
8A5C   68                   PLA
8A5D   85 E5                STA ADDRHI
8A5F   A5 E4      L8A5F     LDA ADDRLO
8A61   85 F9                STA PCLO
8A63   E6 F1                INC OPCODE
8A65   A5 E5                LDA ADDRHI
8A67   D0 04                BNE L8A6D
8A69   A4 F4                LDY INSFMT
8A6B   D0 02                BNE L8A6F
8A6D   E6 F1      L8A6D     INC OPCODE
8A6F   85 FA      L8A6F     STA PCHI
8A71   60                   RTS
8A72   C8         PRTPROM   INY
8A73   B9 7D 8A             LDA $8A7D,Y
8A76   20 EE FF             JSR OUTVEC
8A79   C9 3F                CMP #$3F
8A7B   D0 F5                BNE PRTPROM
8A7D   60                   RTS
8A7E   1A                   .BYTE $1A          ;%00011010
8A7F   0A                   .BYTE $0A          ;%00001010
8A80   20                   .BYTE $20          ;%00100000 ' '
8A81   45                   .BYTE $45          ;%01000101 'E'
8A82   4E                   .BYTE $4E          ;%01001110 'N'
8A83   43                   .BYTE $43          ;%01000011 'C'
8A84   4F                   .BYTE $4F          ;%01001111 'O'
8A85   44                   .BYTE $44          ;%01000100 'D'
8A86   45                   .BYTE $45          ;%01000101 'E'
8A87   52                   .BYTE $52          ;%01010010 'R'
8A88   20                   .BYTE $20          ;%00100000 ' '
8A89   44                   .BYTE $44          ;%01000100 'D'
8A8A   2F                   .BYTE $2F          ;%00101111 '/'
8A8B   41                   .BYTE $41          ;%01000001 'A'
8A8C   20                   .BYTE $20          ;%00100000 ' '
8A8D   3F                   .BYTE $3F          ;%00111111 '?'
8A8E   0D                   .BYTE $0D          ;%00001101
8A8F   0A                   .BYTE $0A          ;%00001010
8A90   0A                   .BYTE $0A          ;%00001010
8A91   20                   .BYTE $20          ;%00100000 ' '
8A92   4D                   .BYTE $4D          ;%01001101 'M'
8A93   2F                   .BYTE $2F          ;%00101111 '/'
8A94   4C                   .BYTE $4C          ;%01001100 'L'
8A95   20                   .BYTE $20          ;%00100000 ' '
8A96   3F                   .BYTE $3F          ;%00111111 '?'
8A97   A9 DF      ASMCHOUT  LDA #$DF
8A99   8D 1A 02             STA CHROUTV
8A9C   A9 8A                LDA #$8A
8A9E   8D 1B 02             STA CHROUTVH
8AA1   60                   RTS
8AA2   18         CALCPC    CLC
8AA3   A5 FE                LDA LOFROM
8AA5   65 F7                ADC PAGCNT
8AA7   85 F9                STA PCLO
8AA9   A5 FF                LDA HIFROM
8AAB   65 F8                ADC ABRTFLG
8AAD   85 FA                STA PCHI
8AAF   60                   RTS
8AB0   E8         L8AB0     INX
8AB1   38         SKIPSPC   SEC
8AB2   B5 13                LDA SRCLINE+1,X
8AB4   F0 09                BEQ L8ABF
8AB6   C9 3B                CMP #$3B
8AB8   F0 05                BEQ L8ABF
8ABA   C9 20                CMP #$20
8ABC   F0 F2                BEQ L8AB0
8ABE   18                   CLC
8ABF   60         L8ABF     RTS
8AC0   20 B6 FE   ENDLINE   JSR QDDATD
8AC3   A2 0B                LDX #$0B
8AC5   A9 00                LDA #$00
8AC7   95 EB      L8AC7     STA ASMSTATE,X
8AC9   CA                   DEX
8ACA   10 FB                BPL L8AC7
8ACC   A5 E0                LDA MODEFLG
8ACE   D0 03                BNE L8AD3
8AD0   4C 84 88             JMP TAPECONT
8AD3   20 97 8A   L8AD3     JSR ASMCHOUT
8AD6   86 E1                STX ASMIDX
8AD8   A6 DD      RESTREG   LDX SAVEX
8ADA   A4 DE                LDY SAVEY
8ADC   A5 DF                LDA SAVEA
8ADE   60                   RTS
8ADF   86 DD      ASMCOUTH  STX SAVEX
8AE1   84 DE                STY SAVEY
8AE3   85 DF                STA SAVEA
8AE5   20 9B FF             JSR OUTPUT
8AE8   E6 E1                INC ASMIDX
8AEA   30 EC                BMI RESTREG
8AEC   A6 E1                LDX ASMIDX
8AEE   95 13                STA SRCLINE+1,X
8AF0   C9 0A                CMP #$0A
8AF2   D0 E4                BNE RESTREG
8AF4   20 8A 88             JSR INSCHOUT
8AF7   8A                   TXA
8AF8   D0 08                BNE ASMTERM
8AFA   85 E0      L8AFA     STA MODEFLG
8AFC   8D 03 02             STA LDFLAG
8AFF   4C 4B 88             JMP PROMPT
8B02   A9 00      ASMTERM   LDA #$00
8B04   95 12                STA SRCLINE,X
8B06   A2 01      ASMNEXT   LDX #$01
8B08   E8         ASMSKIP   INX
8B09   B5 12                LDA SRCLINE,X
8B0B   F0 ED                BEQ L8AFA
8B0D   C9 20                CMP #$20
8B0F   D0 F7                BNE ASMSKIP
8B11   B5 13                LDA SRCLINE+1,X
8B13   C9 2A                CMP #$2A
8B15   F0 09                BEQ L8B20
8B17   A4 F0                LDY CMDDEPTH
8B19   F0 28                BEQ OPRTAIL
8B1B   A9 2A                LDA #$2A
8B1D   4C 48 89             JMP STATEXIT
8B20   20 D0 89   L8B20     JSR OPRESOLV
8B23   A5 F9                LDA PCLO
8B25   85 FE                STA LOFROM
8B27   A5 FA                LDA PCHI
8B29   85 FF                STA HIFROM
8B2B   20 B1 8A             JSR SKIPSPC
8B2E   B0 10                BCS L8B40
8B30   20 D1 89             JSR OPRCONT
8B33   38                   SEC
8B34   A5 F9                LDA PCLO
8B36   E5 FE                SBC LOFROM
8B38   85 F7                STA PAGCNT
8B3A   A5 FA                LDA PCHI
8B3C   E5 FF                SBC HIFROM
8B3E   85 F8                STA ABRTFLG
8B40   4C C0 8A   L8B40     JMP ENDLINE
8B43   20 B1 8A   OPRTAIL   JSR SKIPSPC
8B46   B0 F8                BCS L8B40
8B48   C9 22                CMP #$22
8B4A   D0 0A                BNE L8B56
8B4C   E8         L8B4C     INX
8B4D   B5 13                LDA SRCLINE+1,X
8B4F   F0 EF                BEQ L8B40
8B51   20 A6 88             JSR PRHEXDEC
8B54   D0 F6                BNE L8B4C
8B56   C9 23      L8B56     CMP #$23
8B58   D0 0F                BNE L8B69
8B5A   20 D0 89             JSR OPRESOLV
8B5D   C0 80                CPY #$80
8B5F   90 03                BCC L8B64
8B61   20 A4 88             JSR PRPCHI
8B64   20 9D 88   L8B64     JSR PRPCHEX
8B67   F0 DA                BEQ OPRTAIL
8B69   C9 3A      L8B69     CMP #$3A
8B6B   F0 03                BEQ L8B70
8B6D   4C 02 8C             JMP FMTRESOL
8B70   20 AE 88   L8B70     JSR FINDLBL
8B73   84 ED                STY $ED
8B75   20 A2 8A             JSR CALCPC
8B78   B5 13                LDA SRCLINE+1,X
8B7A   C9 3D                CMP #$3D
8B7C   D0 0C                BNE L8B8A
8B7E   B5 14                LDA $14,X
8B80   C9 3A                CMP #$3A
8B82   D0 03                BNE L8B87
8B84   4C 38 8C             JMP SYNERR
8B87   20 D0 89   L8B87     JSR OPRESOLV
8B8A   A4 ED      L8B8A     LDY $ED
8B8C   A5 F9                LDA PCLO
8B8E   91 E7                STA (WORKPTR),Y
8B90   C8                   INY
8B91   A5 FA                LDA PCHI
8B93   91 E7                STA (WORKPTR),Y
8B95   A5 FE                LDA LOFROM
8B97   48                   PHA
8B98   A5 FF                LDA HIFROM
8B9A   48                   PHA
8B9B   A4 ED      L8B9B     LDY $ED
8B9D   B1 E7                LDA (WORKPTR),Y
8B9F   85 E4                STA ADDRLO
8BA1   C8                   INY
8BA2   B1 E7                LDA (WORKPTR),Y
8BA4   85 E5                STA ADDRHI
8BA6   A0 7F                LDY #$7F
8BA8   A5 ED      L8BA8     LDA $ED
8BAA   C8                   INY
8BAB   C8                   INY
8BAC   C8                   INY
8BAD   10 4A                BPL L8BF9
8BAF   D1 E7                CMP (WORKPTR),Y
8BB1   F0 06                BEQ L8BB9
8BB3   09 80                ORA #$80
8BB5   D1 E7                CMP (WORKPTR),Y
8BB7   D0 EF                BNE L8BA8
8BB9   85 EE      L8BB9     STA $EE
8BBB   A9 FF                LDA #$FF
8BBD   91 E7                STA (WORKPTR),Y
8BBF   C8                   INY
8BC0   B1 E7                LDA (WORKPTR),Y
8BC2   85 FE                STA LOFROM
8BC4   C8                   INY
8BC5   B1 E7                LDA (WORKPTR),Y
8BC7   85 FF                STA HIFROM
8BC9   A0 00                LDY #$00
8BCB   B1 FE                LDA (LOFROM),Y
8BCD   84 F1                STY OPCODE
8BCF   84 F4                STY INSFMT
8BD1   88                   DEY
8BD2   C8         L8BD2     INY
8BD3   C0 40                CPY #$40
8BD5   F0 0A                BEQ L8BE1
8BD7   D9 7F 8F             CMP $8F7F,Y
8BDA   D0 F6                BNE L8BD2
8BDC   B9 BF 8F             LDA L8FBF,Y
8BDF   85 F4                STA INSFMT
8BE1   20 1B 8A   L8BE1     JSR OPRVALUE
8BE4   A0 00                LDY #$00
8BE6   B1 FE                LDA (LOFROM),Y
8BE8   F0 0A                BEQ L8BF4
8BEA   20 F9 FE             JSR BUMP
8BED   C8                   INY
8BEE   B1 FE                LDA (LOFROM),Y
8BF0   F0 02                BEQ L8BF4
8BF2   84 F1                STY OPCODE
8BF4   20 9D 88   L8BF4     JSR PRPCHEX
8BF7   F0 A2                BEQ L8B9B
8BF9   68         L8BF9     PLA
8BFA   85 FF                STA HIFROM
8BFC   68                   PLA
8BFD   85 FE                STA LOFROM
8BFF   4C 43 8B             JMP OPRTAIL
8C02   86 F0      FMTRESOL  STX CMDDEPTH
8C04   E8                   INX
8C05   E8                   INX
8C06   B5 13                LDA SRCLINE+1,X
8C08   85 F2                STA OPMODE
8C0A   A0 05      L8C0A     LDY #$05
8C0C   B5 13                LDA SRCLINE+1,X
8C0E   38                   SEC
8C0F   E9 3F                SBC #$3F
8C11   4A         L8C11     LSR A
8C12   66 F3                ROR INSLEN
8C14   66 F4                ROR INSFMT
8C16   88                   DEY
8C17   D0 F8                BNE L8C11
8C19   CA                   DEX
8C1A   E4 F0                CPX CMDDEPTH
8C1C   10 EC                BPL L8C0A
8C1E   A5 F3      L8C1E     LDA INSLEN
8C20   D9 FF 8E             CMP MNEMLEN,Y
8C23   D0 0E                BNE L8C33
8C25   A5 F4                LDA INSFMT
8C27   D9 3F 8F             CMP MNEMTAB,Y
8C2A   F0 11                BEQ L8C3D
8C2C   09 01                ORA #$01
8C2E   D9 3F 8F             CMP MNEMTAB,Y
8C31   F0 0A                BEQ L8C3D
8C33   C8         L8C33     INY
8C34   C0 40                CPY #$40
8C36   D0 E6                BNE L8C1E
8C38   A9 53      SYNERR    LDA #$53
8C3A   4C 48 89             JMP STATEXIT
8C3D   E6 F1      L8C3D     INC OPCODE
8C3F   E8                   INX
8C40   E8                   INX
8C41   E8                   INX
8C42   E8                   INX
8C43   B9 7F 8F             LDA $8F7F,Y
8C46   85 F3                STA INSLEN
8C48   B9 BF 8F             LDA L8FBF,Y
8C4B   85 F4                STA INSFMT
8C4D   D0 07                BNE L8C56
8C4F   20 B1 8A             JSR SKIPSPC
8C52   B0 3E                BCS L8C92
8C54   D0 E2                BNE SYNERR
8C56   C9 01      L8C56     CMP #$01
8C58   D0 0F                BNE L8C69
8C5A   B5 14                LDA $14,X
8C5C   C9 3A                CMP #$3A
8C5E   D0 D8                BNE SYNERR
8C60   20 D0 89             JSR OPRESOLV
8C63   A9 02                LDA #$02
8C65   85 F1                STA OPCODE
8C67   D0 29                BNE L8C92
8C69   B5 13      L8C69     LDA SRCLINE+1,X
8C6B   C9 20                CMP #$20
8C6D   D0 C9                BNE SYNERR
8C6F   E8                   INX
8C70   B5 13                LDA SRCLINE+1,X
8C72   C9 23                CMP #$23
8C74   F0 0A                BEQ L8C80
8C76   C9 22                CMP #$22
8C78   D0 1D                BNE L8C97
8C7A   B5 14                LDA $14,X
8C7C   85 F9                STA PCLO
8C7E   D0 03                BNE L8C83
8C80   20 D0 89   L8C80     JSR OPRESOLV
8C83   A9 02      L8C83     LDA #$02
8C85   85 F1                STA OPCODE
8C87   A9 10                LDA #$10
8C89   20 42 89             JSR MODEEXIT
8C8C   A5 F2                LDA OPMODE
8C8E   C9 58                CMP #$58
8C90   90 11                BCC L8CA3
8C92   A9 00      L8C92     LDA #$00
8C94   4C 3D 8D   L8C94     JMP DISDONE
8C97   C9 41      L8C97     CMP #$41
8C99   D0 0C                BNE L8CA7
8C9B   C0 30                CPY #$30
8C9D   90 51                BCC L8CF0
8C9F   C0 34                CPY #$34
8CA1   B0 4D                BCS L8CF0
8CA3   A9 08      L8CA3     LDA #$08
8CA5   D0 ED                BNE L8C94
8CA7   C9 28      L8CA7     CMP #$28
8CA9   D0 03                BNE L8CAE
8CAB   85 F5                STA INSFMT+1
8CAD   E8                   INX
8CAE   20 D1 89   L8CAE     JSR OPRCONT
8CB1   20 B1 8A   L8CB1     JSR SKIPSPC
8CB4   B0 08                BCS L8CBE
8CB6   A8                   TAY
8CB7   65 F6                ADC $F6
8CB9   85 F6                STA $F6
8CBB   E8                   INX
8CBC   D0 F3                BNE L8CB1
8CBE   A5 F5      L8CBE     LDA INSFMT+1
8CC0   F0 39                BEQ L8CFB
8CC2   A5 F6                LDA $F6
8CC4   C9 29                CMP #$29
8CC6   F0 22                BEQ L8CEA
8CC8   A9 02                LDA #$02
8CCA   C5 F1                CMP OPCODE
8CCC   D0 22                BNE L8CF0
8CCE   20 42 89             JSR MODEEXIT
8CD1   A5 F6                LDA $F6
8CD3   C9 AD                CMP #$AD
8CD5   D0 07                BNE L8CDE
8CD7   C0 29                CPY #$29
8CD9   F0 B7                BEQ L8C92
8CDB   4C 38 8C   L8CDB     JMP SYNERR
8CDE   C9 AE      L8CDE     CMP #$AE
8CE0   D0 F9                BNE L8CDB
8CE2   C0 59                CPY #$59
8CE4   D0 F5                BNE L8CDB
8CE6   A9 10                LDA #$10
8CE8   D0 53                BNE DISDONE
8CEA   A5 F3      L8CEA     LDA INSLEN
8CEC   C9 40                CMP #$40
8CEE   F0 03                BEQ L8CF3
8CF0   4C 46 89   L8CF0     JMP MODERR
8CF3   A9 03      L8CF3     LDA #$03
8CF5   85 F1                STA OPCODE
8CF7   A9 2C                LDA #$2C
8CF9   D0 42                BNE DISDONE
8CFB   A5 F6      L8CFB     LDA $F6
8CFD   F0 44                BEQ L8D43
8CFF   C9 84                CMP #$84
8D01   D0 17                BNE L8D1A
8D03   A5 F1                LDA OPCODE
8D05   C9 02                CMP #$02
8D07   D0 08                BNE L8D11
8D09   A9 01                LDA #$01
8D0B   25 F4                AND INSFMT
8D0D   D0 1B                BNE L8D2A
8D0F   E6 F1                INC OPCODE
8D11   A9 08      L8D11     LDA #$08
8D13   20 42 89             JSR MODEEXIT
8D16   A9 1C      L8D16     LDA #$1C
8D18   D0 23                BNE DISDONE
8D1A   C9 85      L8D1A     CMP #$85
8D1C   D0 BD                BNE L8CDB
8D1E   A5 F1                LDA OPCODE
8D20   C9 02                CMP #$02
8D22   D0 0C                BNE L8D30
8D24   A9 40                LDA #$40
8D26   25 F4                AND INSFMT
8D28   F0 04                BEQ L8D2E
8D2A   A9 14      L8D2A     LDA #$14
8D2C   D0 0F                BNE DISDONE
8D2E   E6 F1      L8D2E     INC OPCODE
8D30   A9 04      L8D30     LDA #$04
8D32   20 42 89             JSR MODEEXIT
8D35   A5 F2                LDA OPMODE
8D37   C9 58                CMP #$58
8D39   F0 DB                BEQ L8D16
8D3B   A9 18                LDA #$18
8D3D   20 95 88   DISDONE   JSR PRNEXTPC
8D40   4C C0 8A             JMP ENDLINE
8D43   A5 F1      L8D43     LDA OPCODE
8D45   C9 02                CMP #$02
8D47   D0 0C                BNE L8D55
8D49   A9 20                LDA #$20
8D4B   25 F4                AND INSFMT
8D4D   F0 04                BEQ L8D53
8D4F   A9 04                LDA #$04
8D51   D0 EA                BNE DISDONE
8D53   E6 F1      L8D53     INC OPCODE
8D55   A9 80      L8D55     LDA #$80
8D57   20 42 89             JSR MODEEXIT
8D5A   A9 0C                LDA #$0C
8D5C   D0 DF                BNE DISDONE
8D5E   20 EE FF   DISPAGE   JSR OUTVEC
8D61   A9 24                LDA #$24
8D63   20 EE FF             JSR OUTVEC
8D66   20 57 A3             JSR FRMNUM
8D69   A2 FF                LDX #$FF
8D6B   A9 24                LDA #$24
8D6D   20 D3 89             JSR OPRSTART
8D70   20 F5 FB   DISNEXT   JSR CRLF
8D73   85 F8                STA ABRTFLG
8D75   20 90 8D             JSR DISLOOP
8D78   20 97 8D             JSR DISADVPC
8D7B   20 F5 FB             JSR CRLF
8D7E   20 E9 FE   DISWAIT   JSR GETCHR
8D81   C9 0A                CMP #$0A
8D83   F0 EB                BEQ DISNEXT
8D85   C9 44                CMP #$44
8D87   F0 D5                BEQ DISPAGE
8D89   C9 0D                CMP #$0D
8D8B   D0 F1                BNE DISWAIT
8D8D   4C 7E F9             JMP MSTART
8D90   A9 0D      DISLOOP   LDA #$0D
8D92   85 F7                STA PAGCNT
8D94   20 A4 8D   L8D94     JSR OPCDEC
8D97   20 90 8E   DISADVPC  JSR NEXTPC
8D9A   85 F9                STA PCLO
8D9C   84 FA                STY PCHI
8D9E   C6 F7                DEC PAGCNT
8DA0   30 37                BMI L8DD9
8DA2   D0 F0                BNE L8D94
8DA4   20 7D 8E   OPCDEC    JSR DISLINE
8DA7   A1 F9                LDA (PCLO,X)
8DA9   A8                   TAY
8DAA   4A                   LSR A
8DAB   90 0B                BCC L8DB8
8DAD   4A                   LSR A
8DAE   B0 17                BCS L8DC7
8DB0   C9 22                CMP #$22
8DB2   F0 13                BEQ L8DC7
8DB4   29 07                AND #$07
8DB6   09 80                ORA #$80
8DB8   4A         L8DB8     LSR A
8DB9   AA                   TAX
8DBA   BD 9F 8E             LDA OPCLASS,X
8DBD   B0 04                BCS L8DC3
8DBF   4A                   LSR A
8DC0   4A                   LSR A
8DC1   4A                   LSR A
8DC2   4A                   LSR A
8DC3   29 0F      L8DC3     AND #$0F
8DC5   D0 04                BNE L8DCB
8DC7   A0 80      L8DC7     LDY #$80
8DC9   A9 00                LDA #$00
8DCB   AA         L8DCB     TAX
8DCC   BD E3 8E             LDA OPINFO,X
8DCF   85 F1                STA OPCODE
8DD1   29 03                AND #$03
8DD3   85 F2                STA OPMODE
8DD5   A5 F8                LDA ABRTFLG
8DD7   D0 01                BNE DISFMT
8DD9   60         L8DD9     RTS
8DDA   98         DISFMT    TYA
8DDB   29 8F                AND #$8F
8DDD   AA                   TAX
8DDE   98                   TYA
8DDF   A0 03                LDY #$03
8DE1   E0 8A                CPX #$8A
8DE3   F0 0B                BEQ L8DF0
8DE5   4A         L8DE5     LSR A
8DE6   90 08                BCC L8DF0
8DE8   4A                   LSR A
8DE9   4A         L8DE9     LSR A
8DEA   09 20                ORA #$20
8DEC   88                   DEY
8DED   D0 FA                BNE L8DE9
8DEF   C8                   INY
8DF0   88         L8DF0     DEY
8DF1   D0 F2                BNE L8DE5
8DF3   48                   PHA
8DF4   B1 F9      L8DF4     LDA (PCLO),Y
8DF6   20 73 8E             JSR PRHEX
8DF9   C4 F2                CPY OPMODE
8DFB   C8                   INY
8DFC   90 F6                BCC L8DF4
8DFE   A2 01                LDX #$01
8E00   20 89 8E   L8E00     JSR EMITSPC
8E03   C8                   INY
8E04   A2 02                LDX #$02
8E06   C0 04                CPY #$04
8E08   90 F6                BCC L8E00
8E0A   68                   PLA
8E0B   A8                   TAY
8E0C   B9 FF 8E             LDA MNEMLEN,Y
8E0F   85 F3                STA INSLEN
8E11   B9 3F 8F             LDA MNEMTAB,Y
8E14   85 F4                STA INSFMT
8E16   A9 00      L8E16     LDA #$00
8E18   A0 05                LDY #$05
8E1A   06 F4      L8E1A     ASL INSFMT
8E1C   26 F3                ROL INSLEN
8E1E   2A                   ROL A
8E1F   88                   DEY
8E20   D0 F8                BNE L8E1A
8E22   69 3F                ADC #$3F
8E24   20 3D 8E             JSR EMITCHR
8E27   CA                   DEX
8E28   10 EC                BPL L8E16
8E2A   20 87 8E             JSR INSTSEP
8E2D   A2 06                LDX #$06
8E2F   E0 03      L8E2F     CPX #$03
8E31   D0 1D                BNE L8E50
8E33   A4 F2                LDY OPMODE
8E35   D0 0B                BNE L8E42
8E37   06 F3                ASL INSLEN
8E39   90 15                BCC L8E50
8E3B   A9 41                LDA #$41
8E3D   29 7F      EMITCHR   AND #$7F
8E3F   4C EE FF             JMP OUTVEC
8E42   A5 F1      L8E42     LDA OPCODE
8E44   C9 E8                CMP #$E8
8E46   B1 F9                LDA (PCLO),Y
8E48   B0 1C                BCS PRNXTAD
8E4A   20 73 8E             JSR PRHEX
8E4D   88                   DEY
8E4E   D0 F2                BNE L8E42
8E50   06 F1      L8E50     ASL OPCODE
8E52   90 0E                BCC L8E62
8E54   BD F0 8E             LDA ADRPFX,X
8E57   20 3D 8E             JSR EMITCHR
8E5A   BD F6 8E             LDA ADRSFX,X
8E5D   F0 03                BEQ L8E62
8E5F   20 3D 8E             JSR EMITCHR
8E62   CA         L8E62     DEX
8E63   D0 CA                BNE L8E2F
8E65   60                   RTS
8E66   20 93 8E   PRNXTAD   JSR PCADD
8E69   AA                   TAX
8E6A   E8                   INX
8E6B   D0 01                BNE L8E6E
8E6D   C8                   INY
8E6E   98         L8E6E     TYA
8E6F   20 73 8E   PRADDR    JSR PRHEX
8E72   8A                   TXA
8E73   85 FC      PRHEX     STA $FC
8E75   8A                   TXA
8E76   48                   PHA
8E77   20 BD FE             JSR PRDATD
8E7A   68                   PLA
8E7B   AA                   TAX
8E7C   60                   RTS
8E7D   20 F5 FB   DISLINE   JSR CRLF
8E80   A5 FA                LDA PCHI
8E82   A6 F9                LDX PCLO
8E84   20 6F 8E             JSR PRADDR
8E87   A2 01      INSTSEP   LDX #$01
8E89   20 E6 FB   EMITSPC   JSR SPCOUT
8E8C   CA                   DEX
8E8D   D0 FA                BNE EMITSPC
8E8F   60                   RTS
8E90   A5 F2      NEXTPC    LDA OPMODE
8E92   38                   SEC
8E93   A4 FA      PCADD     LDY PCHI
8E95   AA                   TAX
8E96   10 01                BPL L8E99
8E98   88                   DEY
8E99   65 F9      L8E99     ADC PCLO
8E9B   90 01                BCC L8E9E
8E9D   C8                   INY
8E9E   60         L8E9E     RTS
8E9F   40         OPCLASS   .BYTE $40          ;%01000000 '@'
8EA0   02                   .BYTE $02          ;%00000010
8EA1   45                   .BYTE $45          ;%01000101 'E'
8EA2   03                   .BYTE $03          ;%00000011
8EA3   D0                   .BYTE $D0          ;%11010000
8EA4   08                   .BYTE $08          ;%00001000
8EA5   40                   .BYTE $40          ;%01000000 '@'
8EA6   09                   .BYTE $09          ;%00001001
8EA7   30                   .BYTE $30          ;%00110000 '0'
8EA8   22                   .BYTE $22          ;%00100010 '"'
8EA9   45                   .BYTE $45          ;%01000101 'E'
8EAA   33                   .BYTE $33          ;%00110011 '3'
8EAB   D0                   .BYTE $D0          ;%11010000
8EAC   08                   .BYTE $08          ;%00001000
8EAD   40         L8EAD     .BYTE $40          ;%01000000 '@'
8EAE   09                   .BYTE $09          ;%00001001
8EAF   40                   .BYTE $40          ;%01000000 '@'
8EB0   02                   .BYTE $02          ;%00000010
8EB1   45                   .BYTE $45          ;%01000101 'E'
8EB2   33                   .BYTE $33          ;%00110011 '3'
8EB3   D0                   .BYTE $D0          ;%11010000
8EB4   08                   .BYTE $08          ;%00001000
8EB5   40         L8EB5     .BYTE $40          ;%01000000 '@'
8EB6   09                   .BYTE $09          ;%00001001
8EB7   40                   .BYTE $40          ;%01000000 '@'
8EB8   02                   .BYTE $02          ;%00000010
8EB9   45                   .BYTE $45          ;%01000101 'E'
8EBA   B3                   .BYTE $B3          ;%10110011
8EBB   D0                   .BYTE $D0          ;%11010000
8EBC   08                   .BYTE $08          ;%00001000
8EBD   40         L8EBD     .BYTE $40          ;%01000000 '@'
8EBE   09                   .BYTE $09          ;%00001001
8EBF   00                   .BYTE $00          ;%00000000
8EC0   22                   .BYTE $22          ;%00100010 '"'
8EC1   44                   .BYTE $44          ;%01000100 'D'
8EC2   33                   .BYTE $33          ;%00110011 '3'
8EC3   D0                   .BYTE $D0          ;%11010000
8EC4   8C                   .BYTE $8C          ;%10001100
8EC5   44         L8EC5     .BYTE $44          ;%01000100 'D'
8EC6   00                   .BYTE $00          ;%00000000
8EC7   11                   .BYTE $11          ;%00010001
8EC8   22                   .BYTE $22          ;%00100010 '"'
8EC9   44                   .BYTE $44          ;%01000100 'D'
8ECA   33                   .BYTE $33          ;%00110011 '3'
8ECB   D0                   .BYTE $D0          ;%11010000
8ECC   8C                   .BYTE $8C          ;%10001100
8ECD   44                   .BYTE $44          ;%01000100 'D'
8ECE   9A                   .BYTE $9A          ;%10011010
8ECF   10                   .BYTE $10          ;%00010000
8ED0   22                   .BYTE $22          ;%00100010 '"'
8ED1   44                   .BYTE $44          ;%01000100 'D'
8ED2   33                   .BYTE $33          ;%00110011 '3'
8ED3   D0                   .BYTE $D0          ;%11010000
8ED4   08                   .BYTE $08          ;%00001000
8ED5   40                   .BYTE $40          ;%01000000 '@'
8ED6   09                   .BYTE $09          ;%00001001
8ED7   10                   .BYTE $10          ;%00010000
8ED8   22                   .BYTE $22          ;%00100010 '"'
8ED9   44                   .BYTE $44          ;%01000100 'D'
8EDA   33                   .BYTE $33          ;%00110011 '3'
8EDB   D0                   .BYTE $D0          ;%11010000
8EDC   08                   .BYTE $08          ;%00001000
8EDD   40         L8EDD     .BYTE $40          ;%01000000 '@'
8EDE   09                   .BYTE $09          ;%00001001
8EDF   62                   .BYTE $62          ;%01100010 'b'
8EE0   13                   .BYTE $13          ;%00010011
8EE1   78                   .BYTE $78          ;%01111000 'x'
8EE2   A9                   .BYTE $A9          ;%10101001
8EE3   00         OPINFO    .BYTE $00          ;%00000000
8EE4   21                   .BYTE $21          ;%00100001 '!'
8EE5   81         L8EE5     .BYTE $81          ;%10000001
8EE6   82                   .BYTE $82          ;%10000010
8EE7   00                   .BYTE $00          ;%00000000
8EE8   00                   .BYTE $00          ;%00000000
8EE9   59                   .BYTE $59          ;%01011001 'Y'
8EEA   4D                   .BYTE $4D          ;%01001101 'M'
8EEB   91                   .BYTE $91          ;%10010001
8EEC   92                   .BYTE $92          ;%10010010
8EED   86                   .BYTE $86          ;%10000110
8EEE   4A                   .BYTE $4A          ;%01001010 'J'
8EEF   85                   .BYTE $85          ;%10000101
8EF0   9D         ADRPFX    .BYTE $9D          ;%10011101
8EF1   AC                   .BYTE $AC          ;%10101100
8EF2   A9                   .BYTE $A9          ;%10101001
8EF3   AC         L8EF3     .BYTE $AC          ;%10101100
8EF4   A3                   .BYTE $A3          ;%10100011
8EF5   A8                   .BYTE $A8          ;%10101000
8EF6   A4         ADRSFX    .BYTE $A4          ;%10100100
8EF7   D9                   .BYTE $D9          ;%11011001
8EF8   00                   .BYTE $00          ;%00000000
8EF9   D8                   .BYTE $D8          ;%11011000
8EFA   A4                   .BYTE $A4          ;%10100100
8EFB   A4                   .BYTE $A4          ;%10100100
8EFC   00                   .BYTE $00          ;%00000000
8EFD   00                   .BYTE $00          ;%00000000
8EFE   00                   .BYTE $00          ;%00000000
8EFF   1C         MNEMLEN   .BYTE $1C          ;%00011100
8F00   8A                   .BYTE $8A          ;%10001010
8F01   1C                   .BYTE $1C          ;%00011100
8F02   23                   .BYTE $23          ;%00100011 '#'
8F03   5D                   .BYTE $5D          ;%01011101 ']'
8F04   8B                   .BYTE $8B          ;%10001011
8F05   1B                   .BYTE $1B          ;%00011011
8F06   A1                   .BYTE $A1          ;%10100001
8F07   9D                   .BYTE $9D          ;%10011101
8F08   8A                   .BYTE $8A          ;%10001010
8F09   1D                   .BYTE $1D          ;%00011101
8F0A   23                   .BYTE $23          ;%00100011 '#'
8F0B   9D                   .BYTE $9D          ;%10011101
8F0C   8B                   .BYTE $8B          ;%10001011
8F0D   1D                   .BYTE $1D          ;%00011101
8F0E   A1                   .BYTE $A1          ;%10100001
8F0F   00                   .BYTE $00          ;%00000000
8F10   29                   .BYTE $29          ;%00101001 ')'
8F11   19                   .BYTE $19          ;%00011001
8F12   AE                   .BYTE $AE          ;%10101110
8F13   69                   .BYTE $69          ;%01101001 'i'
8F14   A8                   .BYTE $A8          ;%10101000
8F15   19                   .BYTE $19          ;%00011001
8F16   23                   .BYTE $23          ;%00100011 '#'
8F17   24                   .BYTE $24          ;%00100100 '$'
8F18   53                   .BYTE $53          ;%01010011 'S'
8F19   1B                   .BYTE $1B          ;%00011011
8F1A   23                   .BYTE $23          ;%00100011 '#'
8F1B   24                   .BYTE $24          ;%00100100 '$'
8F1C   53                   .BYTE $53          ;%01010011 'S'
8F1D   19                   .BYTE $19          ;%00011001
8F1E   A1                   .BYTE $A1          ;%10100001
8F1F   00                   .BYTE $00          ;%00000000
8F20   1A                   .BYTE $1A          ;%00011010
8F21   5B                   .BYTE $5B          ;%01011011 '['
8F22   5B                   .BYTE $5B          ;%01011011 '['
8F23   A5                   .BYTE $A5          ;%10100101
8F24   69                   .BYTE $69          ;%01101001 'i'
8F25   24                   .BYTE $24          ;%00100100 '$'
8F26   24                   .BYTE $24          ;%00100100 '$'
8F27   AE                   .BYTE $AE          ;%10101110
8F28   AE                   .BYTE $AE          ;%10101110
8F29   A8                   .BYTE $A8          ;%10101000
8F2A   AD                   .BYTE $AD          ;%10101101
8F2B   29         L8F2B     .BYTE $29          ;%00101001 ')'
8F2C   00                   .BYTE $00          ;%00000000
8F2D   7C                   .BYTE $7C          ;%01111100 '|'
8F2E   00                   .BYTE $00          ;%00000000
8F2F   15                   .BYTE $15          ;%00010101
8F30   9C                   .BYTE $9C          ;%10011100
8F31   6D                   .BYTE $6D          ;%01101101 'm'
8F32   9C                   .BYTE $9C          ;%10011100
8F33   A5                   .BYTE $A5          ;%10100101
8F34   69                   .BYTE $69          ;%01101001 'i'
8F35   29                   .BYTE $29          ;%00101001 ')'
8F36   53                   .BYTE $53          ;%01010011 'S'
8F37   84                   .BYTE $84          ;%10000100
8F38   13                   .BYTE $13          ;%00010011
8F39   34                   .BYTE $34          ;%00110100 '4'
8F3A   11                   .BYTE $11          ;%00010001
8F3B   A5                   .BYTE $A5          ;%10100101
8F3C   69                   .BYTE $69          ;%01101001 'i'
8F3D   23                   .BYTE $23          ;%00100011 '#'
8F3E   A0                   .BYTE $A0          ;%10100000
8F3F   D8         MNEMTAB   .BYTE $D8          ;%11011000
8F40   62                   .BYTE $62          ;%01100010 'b'
8F41   5A                   .BYTE $5A          ;%01011010 'Z'
8F42   48                   .BYTE $48          ;%01001000 'H'
8F43   26                   .BYTE $26          ;%00100110 '&'
8F44   62                   .BYTE $62          ;%01100010 'b'
8F45   94                   .BYTE $94          ;%10010100
8F46   88                   .BYTE $88          ;%10001000
8F47   54                   .BYTE $54          ;%01010100 'T'
8F48   44                   .BYTE $44          ;%01000100 'D'
8F49   C8                   .BYTE $C8          ;%11001000
8F4A   54                   .BYTE $54          ;%01010100 'T'
8F4B   68                   .BYTE $68          ;%01101000 'h'
8F4C   44                   .BYTE $44          ;%01000100 'D'
8F4D   E8                   .BYTE $E8          ;%11101000
8F4E   94                   .BYTE $94          ;%10010100
8F4F   00         L8F4F     .BYTE $00          ;%00000000
8F50   B4                   .BYTE $B4          ;%10110100
8F51   08                   .BYTE $08          ;%00001000
8F52   84                   .BYTE $84          ;%10000100
8F53   74                   .BYTE $74          ;%01110100 't'
8F54   B4                   .BYTE $B4          ;%10110100
8F55   28                   .BYTE $28          ;%00101000 '('
8F56   6E                   .BYTE $6E          ;%01101110 'n'
8F57   74                   .BYTE $74          ;%01110100 't'
8F58   F4                   .BYTE $F4          ;%11110100
8F59   CC                   .BYTE $CC          ;%11001100
8F5A   4A                   .BYTE $4A          ;%01001010 'J'
8F5B   72                   .BYTE $72          ;%01110010 'r'
8F5C   F2                   .BYTE $F2          ;%11110010
8F5D   A4                   .BYTE $A4          ;%10100100
8F5E   8A                   .BYTE $8A          ;%10001010
8F5F   00                   .BYTE $00          ;%00000000
8F60   AA                   .BYTE $AA          ;%10101010
8F61   A2                   .BYTE $A2          ;%10100010
8F62   A2                   .BYTE $A2          ;%10100010
8F63   74                   .BYTE $74          ;%01110100 't'
8F64   74                   .BYTE $74          ;%01110100 't'
8F65   74                   .BYTE $74          ;%01110100 't'
8F66   72                   .BYTE $72          ;%01110010 'r'
8F67   44                   .BYTE $44          ;%01000100 'D'
8F68   68                   .BYTE $68          ;%01101000 'h'
8F69   B2                   .BYTE $B2          ;%10110010
8F6A   32                   .BYTE $32          ;%00110010 '2'
8F6B   B2                   .BYTE $B2          ;%10110010
8F6C   00                   .BYTE $00          ;%00000000
8F6D   22                   .BYTE $22          ;%00100010 '"'
8F6E   00                   .BYTE $00          ;%00000000
8F6F   1B                   .BYTE $1B          ;%00011011
8F70   1B                   .BYTE $1B          ;%00011011
8F71   27                   .BYTE $27          ;%00100111 '''
8F72   27                   .BYTE $27          ;%00100111 '''
8F73   72         L8F73     .BYTE $72          ;%01110010 'r'
8F74   72                   .BYTE $72          ;%01110010 'r'
8F75   88                   .BYTE $88          ;%10001000
8F76   C8                   .BYTE $C8          ;%11001000
8F77   C4                   .BYTE $C4          ;%11000100
8F78   CA                   .BYTE $CA          ;%11001010
8F79   26                   .BYTE $26          ;%00100110 '&'
8F7A   48                   .BYTE $48          ;%01001000 'H'
8F7B   44                   .BYTE $44          ;%01000100 'D'
8F7C   44                   .BYTE $44          ;%01000100 'D'
8F7D   A2                   .BYTE $A2          ;%10100010
8F7E   C8                   .BYTE $C8          ;%11001000
8F7F   00                   .BYTE $00          ;%00000000
8F80   08                   .BYTE $08          ;%00001000
8F81   10                   .BYTE $10          ;%00010000
8F82   18                   .BYTE $18          ;%00011000
8F83   14                   .BYTE $14          ;%00010100
8F84   28                   .BYTE $28          ;%00101000 '('
8F85   30                   .BYTE $30          ;%00110000 '0'
8F86   38                   .BYTE $38          ;%00111000 '8'
8F87   40                   .BYTE $40          ;%01000000 '@'
8F88   48                   .BYTE $48          ;%01001000 'H'
8F89   50                   .BYTE $50          ;%01010000 'P'
8F8A   58                   .BYTE $58          ;%01011000 'X'
8F8B   60                   .BYTE $60          ;%01100000 '`'
8F8C   68                   .BYTE $68          ;%01101000 'h'
8F8D   70                   .BYTE $70          ;%01110000 'p'
8F8E   78                   .BYTE $78          ;%01111000 'x'
8F8F   00                   .BYTE $00          ;%00000000
8F90   88                   .BYTE $88          ;%10001000
8F91   90                   .BYTE $90          ;%10010000
8F92   98                   .BYTE $98          ;%10011000
8F93   A0                   .BYTE $A0          ;%10100000
8F94   A8                   .BYTE $A8          ;%10101000
8F95   B0                   .BYTE $B0          ;%10110000
8F96   B8                   .BYTE $B8          ;%10111000
8F97   C0         L8F97     .BYTE $C0          ;%11000000
8F98   C8                   .BYTE $C8          ;%11001000
8F99   D0                   .BYTE $D0          ;%11010000
8F9A   D8                   .BYTE $D8          ;%11011000
8F9B   E0         L8F9B     .BYTE $E0          ;%11100000
8F9C   E8                   .BYTE $E8          ;%11101000
8F9D   F0                   .BYTE $F0          ;%11110000
8F9E   F8                   .BYTE $F8          ;%11111000
8F9F   00                   .BYTE $00          ;%00000000
8FA0   20                   .BYTE $20          ;%00100000 ' '
8FA1   40                   .BYTE $40          ;%01000000 '@'
8FA2   40                   .BYTE $40          ;%01000000 '@'
8FA3   80                   .BYTE $80          ;%10000000
8FA4   A0                   .BYTE $A0          ;%10100000
8FA5   C0                   .BYTE $C0          ;%11000000
8FA6   E0                   .BYTE $E0          ;%11100000
8FA7   8A                   .BYTE $8A          ;%10001010
8FA8   9A                   .BYTE $9A          ;%10011010
8FA9   AA                   .BYTE $AA          ;%10101010
8FAA   BA                   .BYTE $BA          ;%10111010
8FAB   CA                   .BYTE $CA          ;%11001010
8FAC   00                   .BYTE $00          ;%00000000
8FAD   EA                   .BYTE $EA          ;%11101010
8FAE   00                   .BYTE $00          ;%00000000
8FAF   02                   .BYTE $02          ;%00000010
8FB0   22                   .BYTE $22          ;%00100010 '"'
8FB1   42                   .BYTE $42          ;%01000010 'B'
8FB2   62                   .BYTE $62          ;%01100010 'b'
8FB3   82                   .BYTE $82          ;%10000010
8FB4   A2                   .BYTE $A2          ;%10100010
8FB5   C2                   .BYTE $C2          ;%11000010
8FB6   E2                   .BYTE $E2          ;%11100010
8FB7   01                   .BYTE $01          ;%00000001
8FB8   21                   .BYTE $21          ;%00100001 '!'
8FB9   41                   .BYTE $41          ;%01000001 'A'
8FBA   61                   .BYTE $61          ;%01100001 'a'
8FBB   81                   .BYTE $81          ;%10000001
8FBC   A1                   .BYTE $A1          ;%10100001
8FBD   C1                   .BYTE $C1          ;%11000001
8FBE   E1                   .BYTE $E1          ;%11100001
8FBF   00         L8FBF     .BYTE $00          ;%00000000
8FC0   00                   .BYTE $00          ;%00000000
8FC1   01                   .BYTE $01          ;%00000001
8FC2   00                   .BYTE $00          ;%00000000
8FC3   80                   .BYTE $80          ;%10000000
8FC4   00                   .BYTE $00          ;%00000000
8FC5   01                   .BYTE $01          ;%00000001
8FC6   00                   .BYTE $00          ;%00000000
8FC7   00                   .BYTE $00          ;%00000000
8FC8   00                   .BYTE $00          ;%00000000
8FC9   01                   .BYTE $01          ;%00000001
8FCA   00                   .BYTE $00          ;%00000000
8FCB   00                   .BYTE $00          ;%00000000
8FCC   00                   .BYTE $00          ;%00000000
8FCD   01                   .BYTE $01          ;%00000001
8FCE   00                   .BYTE $00          ;%00000000
8FCF   00                   .BYTE $00          ;%00000000
8FD0   00                   .BYTE $00          ;%00000000
8FD1   01                   .BYTE $01          ;%00000001
8FD2   00                   .BYTE $00          ;%00000000
8FD3   B9                   .BYTE $B9          ;%10111001
8FD4   00                   .BYTE $00          ;%00000000
8FD5   01                   .BYTE $01          ;%00000001
8FD6   00                   .BYTE $00          ;%00000000
8FD7   B0                   .BYTE $B0          ;%10110000
8FD8   00                   .BYTE $00          ;%00000000
8FD9   01         L8FD9     .BYTE $01          ;%00000001
8FDA   00                   .BYTE $00          ;%00000000
8FDB   B0                   .BYTE $B0          ;%10110000
8FDC   00                   .BYTE $00          ;%00000000
8FDD   01         L8FDD     .BYTE $01          ;%00000001
8FDE   00                   .BYTE $00          ;%00000000
8FDF   00                   .BYTE $00          ;%00000000
8FE0   A0                   .BYTE $A0          ;%10100000
8FE1   80                   .BYTE $80          ;%10000000
8FE2   80                   .BYTE $80          ;%10000000
8FE3   A1         L8FE3     .BYTE $A1          ;%10100001
8FE4   B9                   .BYTE $B9          ;%10111001
8FE5   B0                   .BYTE $B0          ;%10110000
8FE6   B0                   .BYTE $B0          ;%10110000
8FE7   00                   .BYTE $00          ;%00000000
8FE8   00                   .BYTE $00          ;%00000000
8FE9   00                   .BYTE $00          ;%00000000
8FEA   00                   .BYTE $00          ;%00000000
8FEB   00                   .BYTE $00          ;%00000000
8FEC   00                   .BYTE $00          ;%00000000
8FED   00                   .BYTE $00          ;%00000000
8FEE   00                   .BYTE $00          ;%00000000
8FEF   A9                   .BYTE $A9          ;%10101001
8FF0   A9                   .BYTE $A9          ;%10101001
8FF1   A9                   .BYTE $A9          ;%10101001
8FF2   A9                   .BYTE $A9          ;%10101001
8FF3   E0                   .BYTE $E0          ;%11100000
8FF4   F4                   .BYTE $F4          ;%11110100
8FF5   A9                   .BYTE $A9          ;%10101001
8FF6   A9                   .BYTE $A9          ;%10101001
8FF7   BF                   .BYTE $BF          ;%10111111
8FF8   BF                   .BYTE $BF          ;%10111111
8FF9   BF                   .BYTE $BF          ;%10111111
8FFA   BF                   .BYTE $BF          ;%10111111
8FFB   AF                   .BYTE $AF          ;%10101111
8FFC   BF                   .BYTE $BF          ;%10111111
8FFD   BF                   .BYTE $BF          ;%10111111
8FFE   BF                   .BYTE $BF          ;%10111111
8FFF   FF                   .BYTE $FF          ;%11111111
                            .END

;auto-generated symbols and labels
 L8821      $8821
 L8903      $8903
 L8913      $8913
 L8917      $8917
 L8922      $8922
 L8928      $8928
 L8938      $8938
 L8941      $8941
 L8962      $8962
 L8989      $8989
 L8991      $8991
 L880A      $880A
 L88AD      $88AD
 L88B4      $88B4
 L88C9      $88C9
 L88D2      $88D2
 L88BA      $88BA
 L88FD      $88FD
 L88F4      $88F4
 L88DB      $88DB
 L88D7      $88D7
 L892D      $892D
 L895F      $895F
 L897F      $897F
 L896A      $896A
 L898B      $898B
 L89A3      $89A3
 L89CD      $89CD
 L89B7      $89B7
 L89AE      $89AE
 L89F3      $89F3
 L8A04      $8A04
 L89AC      $89AC
 L8A2B      $8A2B
 L8A51      $8A51
 L8A49      $8A49
 L8A5F      $8A5F
 L8A6D      $8A6D
 L8A6F      $8A6F
 L8ABF      $8ABF
 L8AB0      $8AB0
 L8AC7      $8AC7
 L8AD3      $8AD3
 L8AFA      $8AFA
 L8B20      $8B20
 L8B40      $8B40
 L8B56      $8B56
 L8B4C      $8B4C
 L8B69      $8B69
 L8B64      $8B64
 L8B70      $8B70
 L8B8A      $8B8A
 L8B87      $8B87
 L8BF9      $8BF9
 L8BB9      $8BB9
 L8BA8      $8BA8
 L8BE1      $8BE1
 L8BD2      $8BD2
 L8BF4      $8BF4
 L8B9B      $8B9B
 L8C11      $8C11
 L8C0A      $8C0A
 L8C33      $8C33
 L8C3D      $8C3D
 L8C1E      $8C1E
 L8C56      $8C56
 L8C92      $8C92
 L8C69      $8C69
 L8C80      $8C80
 L8C97      $8C97
 L8C83      $8C83
 L8CA3      $8CA3
 L8CA7      $8CA7
 L8CF0      $8CF0
 L8C94      $8C94
 L8CAE      $8CAE
 L8CBE      $8CBE
 L8CB1      $8CB1
 L8CFB      $8CFB
 L8CEA      $8CEA
 L8CDE      $8CDE
 L8CDB      $8CDB
 L8CF3      $8CF3
 L8D43      $8D43
 L8D1A      $8D1A
 L8D11      $8D11
 L8D2A      $8D2A
 L8D30      $8D30
 L8D2E      $8D2E
 L8D16      $8D16
 L8D55      $8D55
 L8D53      $8D53
 L8DD9      $8DD9
 L8D94      $8D94
 L8DB8      $8DB8
 L8DC7      $8DC7
 L8DC3      $8DC3
 L8DCB      $8DCB
 L8DF0      $8DF0
 L8DE9      $8DE9
 L8DE5      $8DE5
 L8DF4      $8DF4
 L8E00      $8E00
 L8E1A      $8E1A
 L8E16      $8E16
 L8E50      $8E50
 L8E42      $8E42
 L8E62      $8E62
 L8E2F      $8E2F
 L8E6E      $8E6E
 L8E99      $8E99
 L8E9E      $8E9E
 L8EAD      $8EAD
 L8EB5      $8EB5
 L8EBD      $8EBD
 L8EC5      $8EC5
 L8EF3      $8EF3
 L8EDD      $8EDD
 L8EE5      $8EE5
 L8F9B      $8F9B
 L8FBF      $8FBF
 L8FE3      $8FE3
 L8F2B      $8F2B
 L8F4F      $8F4F
 L8F73      $8F73
 L8F97      $8F97
 L8FD9      $8FD9
 L8FDD      $8FDD

;defined symbols used as labels
 ENCODER    $8800
 DISCMD     $8844
 ASMCMD     $8849
 ASMLOOP    $8850
 ASMTAPE    $8878
 TAPECONT   $8884
 PRNEXTPC   $8895
 MODEEXIT   $8942
 MODERR     $8946
 STATEXIT   $8948
 NUMERR     $8987
 INSCHOUT   $888A
 PRTPROM    $8A72
 CMDLOOP    $882B
 DISPAGE    $8D5E
 ASMMEM     $885E
 ASMCHOUT   $8A97
 ASMNEXT    $8B06
 PRHEXDEC   $88A6
 LABERR     $88F0
 FINDLBL    $88AE
 OPRESOLV   $89D0
 OPRVALUE   $8A1B
 CALCPC     $8AA2
 OORERR     $8A4C
 RESTREG    $8AD8
 ASMTERM    $8B02
 PROMPT     $884B
 ASMSKIP    $8B08
 OPRTAIL    $8B43
 SKIPSPC    $8AB1
 OPRCONT    $89D1
 ENDLINE    $8AC0
 PRPCHI     $88A4
 PRPCHEX    $889D
 FMTRESOL   $8C02
 SYNERR     $8C38
 DISDONE    $8D3D
 OPRSTART   $89D3
 DISLOOP    $8D90
 DISADVPC   $8D97
 DISNEXT    $8D70
 DISWAIT    $8D7E
 OPCDEC     $8DA4
 NEXTPC     $8E90
 DISLINE    $8E7D
 DISFMT     $8DDA
 PRHEX      $8E73
 EMITSPC    $8E89
 EMITCHR    $8E3D
 INSTSEP    $8E87
 PRNXTAD    $8E66
 PCADD      $8E93
 PRADDR     $8E6F
 OUTPUT     $FF9B
 MENTRY     $FE0C
 MSTART     $F97E
 OUTVEC     $FFEE
 GETCHR     $FEE9
 SETLOD     $FE70
 STBUMP     $FEF7
 BUMP       $FEF9
 ROLSTR     $FEDA
 ASCHEX     $FE93
 CRLF       $FBF5
 SPCOUT     $FBE6
 PRDATD     $FEBD
 QDDATD     $FEB6
 ENDSTMT    $A265
 ERROR      $A280
 FRMNUM     $A357
 LOFROM       $FE
 HIFROM       $FF
 LDFLAG     $0203
 CHROUTV    $021A
 CHROUTVH   $021B
 USERLO     $0233
 USERHI     $0234
 GOBASIC    $883A
 CHROUTH    $883D
 GOMON      $885B
 ASMCOUTH   $8ADF
 OPCLASS    $8E9F
 OPINFO     $8EE3
 ADRPFX     $8EF0
 ADRSFX     $8EF6
 MNEMLEN    $8EFF
 MNEMTAB    $8F3F
 SRCLINE      $12
 WORKPTR2     $DB
 WORKPT2H     $DC
 SAVEX        $DD
 SAVEY        $DE
 SAVEA        $DF
 MODEFLG      $E0
 ASMIDX       $E1
 OPRSTAT      $E3
 ADDRLO       $E4
 ADDRHI       $E5
 SYMOFF       $E6
 WORKPTR      $E7
 WORKPTRH     $E8
 ASMSTATE     $EB
 CMDDEPTH     $F0
 OPCODE       $F1
 OPMODE       $F2
 INSLEN       $F3
 INSFMT       $F4
 PAGCNT       $F7
 ABRTFLG      $F8
 PCLO         $F9
 PCHI         $FA
