 TMPLO    = $F0
 TMPHI    = $F1
 TMP2LO   = $F2
 TMP2HI   = $F3
 FMTBEG   = $57
 FMTDOT   = $58
 FMTEND   = $59
 GETKEY   = $FD00
 KEYWRT   = $FCBE
 KEY2XR   = $FCC6
 OUTVEC   = $FFEE
 BASICV   = $0000
 READYV   = $03
 CHRGOTV  = $C2
 TXTPTR   = $C3
 TXTPTRH  = $C4
 STMTV    = $C5
 STMTCTV  = $00C9
 KEYDSPV  = $D3
 NEWSTMTV = $0134
 LINESIZE = $013C
 EXECPTRL = $11
 EXECPTRH = $12
 INBUFL   = $13
 INBUFH   = $14
 CMDEXEC  = $00BC
 EVALSTK  = $A212
 PREPWMST = $A274
 BASCONT  = $A5C2
 WARMSTRT = $A491
 GETADR   = $A6BC
 SYNCHR   = $A70C
 CHRPUT   = $A74F
 GETBYT   = $A7CD
 PRNTCRLF = $A8E5
 STMTDISP = $A86C
 PRINT    = $A8C3
 PTRGET   = $A94F
 CHKCOM   = $AAAD
 CHKNUM   = $AAC1
 NEWSTMT  = $AC01
 EVAL     = $AC0C
 FRMEVL   = $AD0B
 FRMEVL1  = $AE88
 INT2FAC  = $AFC1
 CHRIN    = $B0AE
 CRLF     = $B2B6
 CHROUT   = $B3AE
 ERRDISP  = $B408
 INPUT    = $B96E

                            * = $9000
9000   D3         CMD_SCR   .BYTE $D3          ;%11010011
9001   C3                   .BYTE $C3          ;%11000011
9002   D2                   .BYTE $D2          ;%11010010
9003   01                   .BYTE $01          ;%00000001
9004   D3         CMD_SET   .BYTE $D3          ;%11010011
9005   C5                   .BYTE $C5          ;%11000101
9006   D4                   .BYTE $D4          ;%11010100
9007   41                   .BYTE $41          ;%01000001 'A'
9008   D4         CMD_TEST  .BYTE $D4          ;%11010100
9009   C5                   .BYTE $C5          ;%11000101
900A   D3                   .BYTE $D3          ;%11010011
900B   D4                   .BYTE $D4          ;%11010100
900C   12                   .BYTE $12          ;%00010010
900D   D6         CMD_VLIN  .BYTE $D6          ;%11010110
900E   CC                   .BYTE $CC          ;%11001100
900F   C9                   .BYTE $C9          ;%11001001
9010   CE                   .BYTE $CE          ;%11001110
9011   43                   .BYTE $43          ;%01000011 'C'
9012   C8         CMD_HLIN  .BYTE $C8          ;%11001000
9013   CC                   .BYTE $CC          ;%11001100
9014   C9                   .BYTE $C9          ;%11001001
9015   CE                   .BYTE $CE          ;%11001110
9016   45                   .BYTE $45          ;%01000101 'E'
9017   C2         CMD_BLK   .BYTE $C2          ;%11000010
9018   CC                   .BYTE $CC          ;%11001100
9019   CB                   .BYTE $CB          ;%11001011
901A   47                   .BYTE $47          ;%01000111 'G'
901B   C3         CMD_CWI   .BYTE $C3          ;%11000011
901C   D7                   .BYTE $D7          ;%11010111
901D   C9                   .BYTE $C9          ;%11001001
901E   5B         CMD_QUOT  .BYTE $5B          ;%01011011 '['
901F   C7         CMD_GET   .BYTE $C7          ;%11000111
9020   C5                   .BYTE $C5          ;%11000101
9021   D4                   .BYTE $D4          ;%11010100
9022   49                   .BYTE $49          ;%01001001 'I'
9023   C7         CMD_GO    .BYTE $C7          ;%11000111
9024   CF                   .BYTE $CF          ;%11001111
9025   4B                   .BYTE $4B          ;%01001011 'K'
9026   D0         CMD_PRUS  .BYTE $D0          ;%11010000
9027   D2                   .BYTE $D2          ;%11010010
9028   CE                   .BYTE $CE          ;%11001110
9029   D4                   .BYTE $D4          ;%11010100
902A   D5                   .BYTE $D5          ;%11010101
902B   D3                   .BYTE $D3          ;%11010011
902C   CE                   .BYTE $CE          ;%11001110
902D   C7                   .BYTE $C7          ;%11000111
902E   4D                   .BYTE $4D          ;%01001101 'M'
902F   A2                   .BYTE $A2          ;%10100010
9030   4F                   .BYTE $4F          ;%01001111 'O'
9031   D0         CMD_PUTA  .BYTE $D0          ;%11010000
9032   D5                   .BYTE $D5          ;%11010101
9033   D4                   .BYTE $D4          ;%11010100
9034   C1                   .BYTE $C1          ;%11000001
9035   D4                   .BYTE $D4          ;%11010100
9036   51                   .BYTE $51          ;%01010001 'Q'
9037   C9         CMD_INAT  .BYTE $C9          ;%11001001
9038   CE                   .BYTE $CE          ;%11001110
9039   C1                   .BYTE $C1          ;%11000001
903A   D4                   .BYTE $D4          ;%11010100
903B   53                   .BYTE $53          ;%01010011 'S'
903C   D7         CMD_WI    .BYTE $D7          ;%11010111
903D   C9                   .BYTE $C9          ;%11001001
903E   10                   .BYTE $10          ;%00010000
903F   D2         CMD_RD    .BYTE $D2          ;%11010010
9040   C4                   .BYTE $C4          ;%11000100
9041   55                   .BYTE $55          ;%01010101 'U'
9042   C7         CMD_GT    .BYTE $C7          ;%11000111
9043   D4                   .BYTE $D4          ;%11010100
9044   57                   .BYTE $57          ;%01010111 'W'
9045   C7         CMD_GS    .BYTE $C7          ;%11000111
9046   D3                   .BYTE $D3          ;%11010011
9047   59                   .BYTE $59          ;%01011001 'Y'
9048   00                   .BYTE $00          ;%00000000
9049   A9 00      RDHEX4    LDA #$00
904B   85 11                STA EXECPTRL
904D   85 12                STA EXECPTRH
904F   A2 04                LDX #$04
9051   20 BC 00   L9051     JSR CMDEXEC
9054   20 5E 90             JSR HEXIN
9057   CA                   DEX
9058   D0 F7                BNE L9051
905A   20 BC 00             JSR CMDEXEC
905D   60                   RTS
905E   B0 05      HEXIN     BCS L9065
9060   38                   SEC
9061   E9 30                SBC #$30
9063   10 08                BPL L906D
9065   E9 37      L9065     SBC #$37
9067   90 12                BCC L907B
9069   C9 10                CMP #$10
906B   B0 0E                BCS L907B
906D   A0 04      L906D     LDY #$04
906F   06 11      L906F     ASL EXECPTRL
9071   26 12                ROL EXECPTRH
9073   88                   DEY
9074   D0 F9                BNE L906F
9076   05 11                ORA EXECPTRL
9078   85 11                STA EXECPTRL
907A   60                   RTS
907B   4C 0C AC   L907B     JMP EVAL
907E   A9 40      CMDINIT   LDA #$40
9080   8D 3C 01             STA LINESIZE
9083   A9 CD                LDA #$CD
9085   8D 37 01             STA $0137
9088   A9 D3                LDA #$D3
908A   8D 36 01             STA $0136
908D   A9 10                LDA #$10
908F   8D 3D 01             STA LINESIZE+1
9092   A9 30                LDA #$30
9094   8D 3E 01             STA $013E
9097   4C C2 00             JMP CHRGOTV
909A   EA                   NOP
909B   EA                   NOP
909C   A9 30                LDA #$30
909E   8D 3E 01             STA $013E
90A1   4C C2 00             JMP CHRGOTV
90A4   A5 F0                LDA TMPLO
90A6   8D 3D 01             STA LINESIZE+1
90A9   EE 3D 01             INC LINESIZE+1
90AC   4C C2 00             JMP CHRGOTV
90AF   68         PUTATCMD  PLA
90B0   68                   PLA
90B1   A9 A5                LDA #$A5
90B3   48                   PHA
90B4   A9 FB                LDA #$FB
90B6   48                   PHA
90B7   A9 03                LDA #$03
90B9   20 12 A2             JSR EVALSTK
90BC   A5 C4                LDA TXTPTRH
90BE   48                   PHA
90BF   A5 C3                LDA TXTPTR
90C1   48                   PHA
90C2   A5 88                LDA $88
90C4   48                   PHA
90C5   A5 87                LDA $87
90C7   48                   PHA
90C8   A9 8C                LDA #$8C
90CA   48                   PHA
90CB   20 C2 00             JSR CHRGOTV
90CE   20 D4 90             JSR GETADDR2
90D1   4C C2 A5             JMP BASCONT
90D4   20 AD AA   GETADDR2  JSR CHKCOM
90D7   20 08 B4             JSR ERRDISP
90DA   A5 12                LDA EXECPTRH
90DC   C9 FA                CMP #$FA
90DE   90 03                BCC L90E3
90E0   4C 88 AE             JMP FRMEVL1
90E3   4C BC A6   L90E3     JMP GETADR
90E6   68         INATCMD   PLA
90E7   68                   PLA
90E8   20 C2 00             JSR CHRGOTV
90EB   20 D4 90             JSR GETADDR2
90EE   4C C2 A5             JMP BASCONT
90F1   38         LINCMP    SEC
90F2   A5 11                LDA EXECPTRL
90F4   E5 F2                SBC TMP2LO
90F6   85 F0                STA TMPLO
90F8   A5 12                LDA EXECPTRH
90FA   E5 F3                SBC TMP2HI
90FC   85 F1                STA TMPHI
90FE   4C CC 97             JMP LINSTEP
9101   24 24                BIT $24
9103   20 AE B3             JSR CHROUT
9106   A9 D0                LDA #$D0
9108   85 F1                STA TMPHI
910A   8A                   TXA
910B   A2 07                LDX #$07
910D   A0 00                LDY #$00
910F   84 F0                STY TMPLO
9111   91 F0      L9111     STA (TMPLO),Y
9113   C8                   INY
9114   D0 FB                BNE L9111
9116   48                   PHA
9117   E6 F1                INC TMPHI
9119   68                   PLA
911A   CA                   DEX
911B   10 F4                BPL L9111
911D   4C C2 00             JMP CHRGOTV
9120   EA                   NOP
9121   4C 7E 90   L9121     JMP CMDINIT
9124   EA                   NOP
9125   20 62 91             JSR CMDCHAR
9128   20 0B AD             JSR FRMEVL
912B   85 97                STA $97
912D   84 98                STY $98
912F   A5 5F                LDA $5F
9131   48                   PHA
9132   AD 36 01             LDA $0136
9135   85 F1                STA TMPHI
9137   AD 37 01             LDA $0137
913A   85 F0                STA TMPLO
913C   AE 3B 01             LDX $013B
913F   AC 3A 01             LDY $013A
9142   E0 00                CPX #$00
9144   F0 11      L9144     BEQ L9157
9146   A5 F0                LDA TMPLO
9148   38                   SEC
9149   ED 3C 01             SBC LINESIZE
914C   85 F0                STA TMPLO
914E   A5 F1                LDA TMPHI
9150   E9 00                SBC #$00
9152   85 F1                STA TMPHI
9154   CA                   DEX
9155   10 ED                BPL L9144
9157   B1 F0      L9157     LDA (TMPLO),Y
9159   A8                   TAY
915A   A9 00                LDA #$00
915C   20 C1 AF             JSR INT2FAC
915F   4C 09 94             JMP L9409
9162   20 AE B3   CMDCHAR   JSR CHROUT
9165   EC 3D 01             CPX LINESIZE+1
9168   B0 0E                BCS L9178
916A   8E 3B 01             STX $013B
916D   20 01 AC             JSR NEWSTMT
9170   20 AE B3             JSR CHROUT
9173   EC 3E 01             CPX $013E
9176   90 03                BCC L917B
9178   4C 88 AE   L9178     JMP FRMEVL1
917B   8E 3A 01   L917B     STX $013A
917E   20 01 AC             JSR NEWSTMT
9181   60                   RTS
9182   EA         CMDJUMPT  NOP
9183   4C 08 93             JMP SCRCMD
9186   EA                   NOP
9187   4C 46 93             JMP SETCMD
918A   EA                   NOP
918B   4C 7F 93             JMP TESTCMD
918E   EA                   NOP
918F   4C BF 93             JMP VLINCMD
9192   EA                   NOP
9193   4C 11 94             JMP HLINCMD
9196   EA                   NOP
9197   4C 79 94             JMP BLKCMD
919A   EA                   NOP
919B   4C B0 94             JMP GOCMD
919E   EA                   NOP
919F   4C 97 94             JMP GETCMD
91A2   EA                   NOP
91A3   4C E4 96             JMP GSCMD
91A6   EA                   NOP
91A7   4C 24 97             JMP GTCMD
91AA   EA                   NOP
91AB   4C A1 97             JMP RDCMD
91AE   EA                   NOP
91AF   4C E6 90             JMP INATCMD
91B2   EA                   NOP
91B3   4C AF 90             JMP PUTATCMD
91B6   EA                   NOP
91B7   4C 88 AE             JMP FRMEVL1
91BA   20 01 AC   CMDEXIT   JSR NEWSTMT
91BD   A5 11                LDA EXECPTRL
91BF   85 F2                STA TMP2LO
91C1   A5 12                LDA EXECPTRH
91C3   85 F3                STA TMP2HI
91C5   20 85 94             JSR GETADDR
91C8   20 01 AC             JSR NEWSTMT
91CB   20 F1 90   L91CB     JSR LINCMP
91CE   A5 F0                LDA TMPLO
91D0   C9 20      L91D0     CMP #$20
91D2   90 03                BCC L91D7
91D4   4C 88 AE   L91D4     JMP FRMEVL1
91D7   A5 F2      L91D7     LDA TMP2LO
91D9   8D 23 02             STA $0223
91DC   A5 F3                LDA TMP2HI
91DE   8D 24 02             STA $0224
91E1   A5 11                LDA EXECPTRL
91E3   8D 25 02             STA $0225
91E6   A5 12                LDA EXECPTRH
91E8   8D 26 02             STA $0226
91EB   20 AE B3             JSR CHROUT
91EE   CA                   DEX
91EF   EC 3C 01             CPX LINESIZE
91F2   B0 E0                BCS L91D4
91F4   8E 22 02             STX $0222
91F7   A9 0C                LDA #$0C
91F9   20 EE FF             JSR OUTVEC
91FC   4C C2 00             JMP CHRGOTV
91FF   24 A9                BIT $A9
9201   4C 85 00             JMP $0085
9204   85 03                STA READYV
9206   85 C5                STA STMTV
9208   A9 0C                LDA #$0C
920A   8D 34 01             STA NEWSTMTV
920D   A9 AC                LDA #$AC
920F   8D 35 01             STA NEWSTMTV+1
9212   A9 00                LDA #$00
9214   85 01                STA BASICV+1
9216   A9 92                LDA #$92
9218   85 02                STA $02
921A   A9 88                LDA #$88
921C   85 04                STA $04
921E   A9 92                LDA #$92
9220   85 05                STA $05
9222   A9 9B                LDA #$9B
9224   85 C6                STA $C6
9226   A9 92                LDA #$92
9228   85 C7                STA $C7
922A   A9 EA                LDA #$EA
922C   85 C8                STA $C8
922E   48                   PHA
922F   48                   PHA
9230   48                   PHA
9231   48                   PHA
9232   20 91 A4             JSR WARMSTRT
9235   EA                   NOP
9236   20 21 91             JSR L9121
9239   4C 4A 92             JMP L924A
923C   30                   .BYTE $30          ;%00110000 '0'
923D   8D                   .BYTE $8D          ;%10001101
923E   3E                   .BYTE $3E          ;%00111110 '>'
923F   01                   .BYTE $01          ;%00000001
9240   A9                   .BYTE $A9          ;%10101001
9241   10                   .BYTE $10          ;%00010000
9242   8D                   .BYTE $8D          ;%10001101
9243   3D                   .BYTE $3D          ;%00111101 '='
9244   01                   .BYTE $01          ;%00000001
9245   EA                   .BYTE $EA          ;%11101010
9246   EA                   .BYTE $EA          ;%11101010
9247   EA                   .BYTE $EA          ;%11101010
9248   EA                   .BYTE $EA          ;%11101010
9249   EA                   .BYTE $EA          ;%11101010
924A   A9 54      L924A     LDA #$54
924C   A0 92                LDY #$92
924E   20 C3 A8             JSR PRINT
9251   4C 74 A2             JMP PREPWMST
9254   0C                   .BYTE $0C          ;%00001100
9255   0A                   .BYTE $0A          ;%00001010
9256   0A                   .BYTE $0A          ;%00001010
9257   2A                   .BYTE $2A          ;%00101010 '*'
9258   20                   .BYTE $20          ;%00100000 ' '
9259   42                   .BYTE $42          ;%01000010 'B'
925A   41                   .BYTE $41          ;%01000001 'A'
925B   53                   .BYTE $53          ;%01010011 'S'
925C   49                   .BYTE $49          ;%01001001 'I'
925D   43                   .BYTE $43          ;%01000011 'C'
925E   20                   .BYTE $20          ;%00100000 ' '
925F   35                   .BYTE $35          ;%00110101 '5'
9260   20                   .BYTE $20          ;%00100000 ' '
9261   2A                   .BYTE $2A          ;%00101010 '*'
9262   20                   .BYTE $20          ;%00100000 ' '
9263   20                   .BYTE $20          ;%00100000 ' '
9264   56                   .BYTE $56          ;%01010110 'V'
9265   31                   .BYTE $31          ;%00110001 '1'
9266   2E                   .BYTE $2E          ;%00101110 '.'
9267   33                   .BYTE $33          ;%00110011 '3'
9268   0D                   .BYTE $0D          ;%00001101
9269   0A                   .BYTE $0A          ;%00001010
926A   0A                   .BYTE $0A          ;%00001010
926B   0A                   .BYTE $0A          ;%00001010
926C   5B                   .BYTE $5B          ;%01011011 '['
926D   43                   .BYTE $43          ;%01000011 'C'
926E   5D                   .BYTE $5D          ;%01011101 ']'
926F   20                   .BYTE $20          ;%00100000 ' '
9270   31                   .BYTE $31          ;%00110001 '1'
9271   39                   .BYTE $39          ;%00111001 '9'
9272   38                   .BYTE $38          ;%00111000 '8'
9273   31                   .BYTE $31          ;%00110001 '1'
9274   20                   .BYTE $20          ;%00100000 ' '
9275   50                   .BYTE $50          ;%01010000 'P'
9276   2E                   .BYTE $2E          ;%00101110 '.'
9277   52                   .BYTE $52          ;%01010010 'R'
9278   69                   .BYTE $69          ;%01101001 'i'
9279   68                   .BYTE $68          ;%01101000 'h'
927A   61                   .BYTE $61          ;%01100001 'a'
927B   6E                   .BYTE $6E          ;%01101110 'n'
927C   2F                   .BYTE $2F          ;%00101111 '/'
927D   50                   .BYTE $50          ;%01010000 'P'
927E   52                   .BYTE $52          ;%01010010 'R'
927F   45                   .BYTE $45          ;%01000101 'E'
9280   4D                   .BYTE $4D          ;%01001101 'M'
9281   49                   .BYTE $49          ;%01001001 'I'
9282   45                   .BYTE $45          ;%01000101 'E'
9283   52                   .BYTE $52          ;%01010010 'R'
9284   0D                   .BYTE $0D          ;%00001101
9285   0A                   .BYTE $0A          ;%00001010
9286   0A                   .BYTE $0A          ;%00001010
9287   00                   .BYTE $00          ;%00000000
9288   A9 E9      READYMSG  LDA #$E9
928A   A0 97                LDY #$97
928C   4C C3 A8             JMP PRINT
928F   A9 F8                LDA #$F8
9291   A0 97                LDY #$97
9293   20 C3 A8             JSR PRINT
9296   4C C2 00             JMP CHRGOTV
9299   00                   BRK
929A   DB                   ???                ;%11011011
929B   C9 26      EXTDISP   CMP #$26
929D   D0 02                BNE L92A1
929F   F0 0F                BEQ L92B0
92A1   C9 3A      L92A1     CMP #$3A
92A3   B0 03                BCS L92A8
92A5   4C C9 00             JMP STMTCTV
92A8   4C D3 00   L92A8     JMP KEYDSPV
92AB   68         L92AB     PLA
92AC   AA                   TAX
92AD   68                   PLA
92AE   D0 F1                BNE L92A1
92B0   48         L92B0     PHA
92B1   8A                   TXA
92B2   48                   PHA
92B3   BA                   TSX
92B4   BD 03 01             LDA $0103,X
92B7   C9 F8                CMP #$F8
92B9   D0 F0                BNE L92AB
92BB   E8                   INX
92BC   BD 03 01             LDA $0103,X
92BF   C9 A5                CMP #$A5
92C1   D0 E8                BNE L92AB
92C3   68                   PLA
92C4   AA                   TAX
92C5   68                   PLA
92C6   A2 FF                LDX #$FF
92C8   A0 FF                LDY #$FF
92CA   20 BC 00             JSR CMDEXEC
92CD   20 DF 92   L92CD     JSR EXTSCAN
92D0   B0 1E                BCS L92F0
92D2   D1 C3                CMP (TXTPTR),Y
92D4   F0 F7                BEQ L92CD
92D6   20 DF 92   L92D6     JSR EXTSCAN
92D9   90 FB                BCC L92D6
92DB   A0 FF                LDY #$FF
92DD   D0 EE                BNE L92CD
92DF   E8         EXTSCAN   INX
92E0   C8                   INY
92E1   18         EXTNEXT   CLC
92E2   BD 00 90             LDA CMD_SCR,X
92E5   30 06                BMI EXTCHAR
92E7   38                   SEC
92E8   D0 03                BNE EXTCHAR
92EA   6C 34 01             JMP (NEWSTMTV)
92ED   29 7F      EXTCHAR   AND #$7F
92EF   60                   RTS
92F0   98         L92F0     TYA
92F1   18                   CLC
92F2   65 C3                ADC TXTPTR
92F4   85 C3                STA TXTPTR
92F6   A5 C4                LDA TXTPTRH
92F8   69 00                ADC #$00
92FA   85 C4                STA TXTPTRH
92FC   A0 91                LDY #$91
92FE   98                   TYA
92FF   48                   PHA
9300   20 E1 92             JSR EXTNEXT
9303   0A                   ASL A
9304   48                   PHA
9305   4C C2 00             JMP CHRGOTV
9308   20 62 91   SCRCMD    JSR CMDCHAR
930B   20 AE B3             JSR CHROUT
930E   8E 3F 01             STX $013F
9311   AE 3B 01             LDX $013B
9314   AC 3A 01             LDY $013A
9317   20 1D 93             JSR CMDSTORE
931A   4C C2 00             JMP CHRGOTV
931D   8A         CMDSTORE  TXA
931E   48                   PHA
931F   AD 37 01             LDA $0137
9322   85 F0                STA TMPLO
9324   AD 36 01             LDA $0136
9327   85 F1                STA TMPHI
9329   E0 00                CPX #$00
932B   F0 11      L932B     BEQ L933E
932D   38                   SEC
932E   A5 F0                LDA TMPLO
9330   ED 3C 01             SBC LINESIZE
9333   85 F0                STA TMPLO
9335   A5 F1                LDA TMPHI
9337   E9 00                SBC #$00
9339   85 F1                STA TMPHI
933B   CA                   DEX
933C   10 ED                BPL L932B
933E   AD 3F 01   L933E     LDA $013F
9341   91 F0                STA (TMPLO),Y
9343   68                   PLA
9344   AA                   TAX
9345   60                   RTS
9346   20 62 91   SETCMD    JSR CMDCHAR
9349   20 AE B3             JSR CHROUT
934C   8A                   TXA
934D   18                   CLC
934E   6D 3B 01             ADC $013B
9351   B0 39                BCS L938C
9353   CD 3D 01             CMP LINESIZE+1
9356   F0 02                BEQ L935A
9358   B0 32                BCS L938C
935A   8E 39 01   L935A     STX $0139
935D   20 01 AC             JSR NEWSTMT
9360   20 AE B3             JSR CHROUT
9363   8E 3F 01             STX $013F
9366   AE 3B 01             LDX $013B
9369   AC 39 01             LDY $0139
936C   F0 0E      L936C     BEQ L937C
936E   98                   TYA
936F   48                   PHA
9370   AC 3A 01             LDY $013A
9373   20 1D 93             JSR CMDSTORE
9376   68                   PLA
9377   A8                   TAY
9378   E8                   INX
9379   88                   DEY
937A   10 F0                BPL L936C
937C   4C C2 00   L937C     JMP CHRGOTV
937F   20 62 91   TESTCMD   JSR CMDCHAR
9382   20 AE B3             JSR CHROUT
9385   8A                   TXA
9386   18                   CLC
9387   6D 3A 01             ADC $013A
938A   90 03                BCC L938F
938C   4C 88 AE   L938C     JMP FRMEVL1
938F   CD 3E 01   L938F     CMP $013E
9392   F0 02                BEQ L9396
9394   B0 F6                BCS L938C
9396   8E 39 01   L9396     STX $0139
9399   20 01 AC             JSR NEWSTMT
939C   20 AE B3             JSR CHROUT
939F   8E 3F 01             STX $013F
93A2   20 A8 93             JSR CMDCOPY
93A5   4C C2 00             JMP CHRGOTV
93A8   AC 3A 01   CMDCOPY   LDY $013A
93AB   AE 39 01             LDX $0139
93AE   F0 0E      L93AE     BEQ L93BE
93B0   8A                   TXA
93B1   48                   PHA
93B2   AE 3B 01             LDX $013B
93B5   20 1D 93             JSR CMDSTORE
93B8   68                   PLA
93B9   AA                   TAX
93BA   C8                   INY
93BB   CA                   DEX
93BC   10 F0                BPL L93AE
93BE   60         L93BE     RTS
93BF   20 62 91   VLINCMD   JSR CMDCHAR
93C2   20 AE B3             JSR CHROUT
93C5   8A                   TXA
93C6   18                   CLC
93C7   6D 3A 01             ADC $013A
93CA   B0 C0                BCS L938C
93CC   CD 3E 01             CMP $013E
93CF   F0 02                BEQ L93D3
93D1   B0 B9                BCS L938C
93D3   8E 39 01   L93D3     STX $0139
93D6   20 01 AC             JSR NEWSTMT
93D9   20 AE B3             JSR CHROUT
93DC   8A                   TXA
93DD   18                   CLC
93DE   6D 3B 01             ADC $013B
93E1   B0 A9                BCS L938C
93E3   CD 3D 01             CMP LINESIZE+1
93E6   F0 02                BEQ L93EA
93E8   B0 A2                BCS L938C
93EA   8E 38 01   L93EA     STX $0138
93ED   20 01 AC             JSR NEWSTMT
93F0   20 AE B3             JSR CHROUT
93F3   8E 3F 01             STX $013F
93F6   AD 38 01             LDA $0138
93F9   F0 0B      L93F9     BEQ L9406
93FB   20 A8 93             JSR CMDCOPY
93FE   EE 3B 01             INC $013B
9401   CE 38 01             DEC $0138
9404   10 F3                BPL L93F9
9406   4C C2 00   L9406     JMP CHRGOTV
9409   68         L9409     PLA
940A   2A                   ROL A
940B   20 CD A7             JSR GETBYT
940E   4C C2 00             JMP CHRGOTV
9411   20 0B AD   HLINCMD   JSR FRMEVL
9414   85 97                STA $97
9416   84 98                STY $98
9418   A5 5F                LDA $5F
941A   48                   PHA
941B   20 31 94             JSR KEYSCAN
941E   85 13                STA INBUFL
9420   A0 00                LDY #$00
9422   84 14                STY INBUFH
9424   A9 13                LDA #$13
9426   20 AE B0             JSR CHRIN
9429   68                   PLA
942A   2A                   ROL A
942B   20 CD A7             JSR GETBYT
942E   4C C2 00             JMP CHRGOTV
9431   8A         KEYSCAN   TXA
9432   48                   PHA
9433   98                   TYA
9434   48                   PHA
9435   A9 01                LDA #$01
9437   20 BE FC   L9437     JSR KEYWRT
943A   20 C6 FC             JSR KEY2XR
943D   D0 05                BNE L9444
943F   0A         L943F     ASL A
9440   D0 F5                BNE L9437
9442   F0 0C                BEQ L9450
9444   4A         L9444     LSR A
9445   90 0C                BCC L9453
9447   2A                   ROL A
9448   E0 21                CPX #$21
944A   D0 F3                BNE L943F
944C   A9 1B                LDA #$1B
944E   D0 22                BNE L9472
9450   4C B7 FD   L9450     JMP $FDB7
9453   20 C8 FD   L9453     JSR $FDC8
9456   98                   TYA
9457   8D 13 02             STA $0213
945A   0A                   ASL A
945B   0A                   ASL A
945C   0A                   ASL A
945D   38                   SEC
945E   ED 13 02             SBC $0213
9461   8D 13 02             STA $0213
9464   8A                   TXA
9465   4A                   LSR A
9466   20 C8 FD             JSR $FDC8
9469   18                   CLC
946A   98                   TYA
946B   6D 13 02             ADC $0213
946E   A8                   TAY
946F   B9 CF FD             LDA $FDCF,Y
9472   8D 15 02   L9472     STA $0215
9475   4C 84 FD             JMP $FD84
9478   EA                   NOP
9479   20 85 94   BLKCMD    JSR GETADDR
947C   20 82 94             JSR INDJMP
947F   4C C2 00             JMP CHRGOTV
9482   6C 11 00   INDJMP    JMP (EXECPTRL)
9485   20 C2 00   GETADDR   JSR CHRGOTV
9488   C9 24                CMP #$24
948A   D0 04                BNE L9490
948C   20 49 90             JSR RDHEX4
948F   60                   RTS
9490   20 AD AA   L9490     JSR CHKCOM
9493   20 08 B4             JSR ERRDISP
9496   60                   RTS
9497   20 4F A7   GETCMD    JSR CHRPUT
949A   4C C2 00             JMP CHRGOTV
949D   98         L949D     TYA
949E   18                   CLC
949F   65 57                ADC FMTBEG
94A1   C5 58                CMP FMTDOT
94A3   4C 5B 96             JMP L965B
94A6   EA                   NOP
94A7   20 B6 B2   L94A7     JSR CRLF
94AA   85 AC                STA $AC
94AC   4C CC 95             JMP L95CC
94AF   EA                   NOP
94B0   18         GOCMD     CLC
94B1   20 23 95             JSR EXECADDR
94B4   20 0C A7             JSR SYNCHR
94B7   20 81 95   L94B7     JSR SCANMARK
94BA   90 41                BCC L94FD
94BC   20 BC 00   L94BC     JSR CMDEXEC
94BF   F0 22                BEQ L94E3
94C1   C9 3A                CMP #$3A
94C3   F0 1E                BEQ L94E3
94C5   20 C1 AA             JSR CHKNUM
94C8   A5 5F                LDA $5F
94CA   85 5A                STA $5A
94CC   30 06                BMI L94D4
94CE   20 6E B9             JSR INPUT
94D1   20 AE B0             JSR CHRIN
94D4   20 C9 95   L94D4     JSR L95C9
94D7   20 81 95             JSR SCANMARK
94DA   90 10                BCC L94EC
94DC   20 C2 00             JSR CHRGOTV
94DF   C9 2C                CMP #$2C
94E1   F0 D9                BEQ L94BC
94E3   20 10 95   L94E3     JSR PRINBUF
94E6   20 C2 00             JSR CHRGOTV
94E9   4C 03 95             JMP L9503
94EC   20 10 95   L94EC     JSR PRINBUF
94EF   20 C2 00             JSR CHRGOTV
94F2   C9 2C                CMP #$2C
94F4   D0 0D                BNE L9503
94F6   38                   SEC
94F7   20 23 95             JSR EXECADDR
94FA   4C B7 94             JMP L94B7
94FD   20 10 95   L94FD     JSR PRINBUF
9500   20 BC 00             JSR CMDEXEC
9503   C9 3A      L9503     CMP #$3A
9505   D0 02                BNE L9509
9507   F0 04                BEQ L950D
9509   C9 00      L9509     CMP #$00
950B   D0 64                BNE L9571
950D   4C C2 00   L950D     JMP CHRGOTV
9510   A0 00      PRINBUF   LDY #$00
9512   C4 57      L9512     CPY FMTBEG
9514   B0 09                BCS L951F
9516   B9 13 00             LDA INBUFL+$0000,Y
9519   20 E5 A8             JSR PRNTCRLF
951C   C8                   INY
951D   D0 F3                BNE L9512
951F   20 6C A8   L951F     JSR STMTDISP
9522   60                   RTS
9523   A5 C3      EXECADDR  LDA TXTPTR
9525   48                   PHA
9526   A5 C4                LDA TXTPTRH
9528   48                   PHA
9529   A5 87                LDA $87
952B   48                   PHA
952C   A5 88                LDA $88
952E   48                   PHA
952F   90 06                BCC L9537
9531   20 BC A6             JSR GETADR
9534   4C 3D 95             JMP L953D
9537   20 C2 00   L9537     JSR CHRGOTV
953A   20 D4 90             JSR GETADDR2
953D   18         L953D     CLC
953E   A5 C3                LDA TXTPTR
9540   69 04                ADC #$04
9542   85 C3                STA TXTPTR
9544   90 02                BCC L9548
9546   E6 C4                INC TXTPTRH
9548   A5 11      L9548     LDA EXECPTRL
954A   85 87                STA $87
954C   A5 12                LDA EXECPTRH
954E   85 88                STA $88
9550   20 BC 00             JSR CMDEXEC
9553   C9 26                CMP #$26
9555   D0 1A                BNE L9571
9557   20 BC 00             JSR CMDEXEC
955A   C9 22                CMP #$22
955C   D0 13                BNE L9571
955E   A0 01                LDY #$01
9560   B1 C3      L9560     LDA (TXTPTR),Y
9562   99 12 00             STA EXECPTRH+$0000,Y
9565   C9 00                CMP #$00
9567   F0 0B                BEQ L9574
9569   C8                   INY
956A   CC 3E 01             CPY $013E
956D   90 F1                BCC L9560
956F   F0 EF                BEQ L9560
9571   4C 0C AC   L9571     JMP EVAL
9574   68         L9574     PLA
9575   85 88                STA $88
9577   68                   PLA
9578   85 87                STA $87
957A   68                   PLA
957B   85 C4                STA TXTPTRH
957D   68                   PLA
957E   85 C3                STA TXTPTR
9580   60                   RTS
9581   A2 00      SCANMARK  LDX #$00
9583   86 58                STX FMTDOT
9585   86 59                STX FMTEND
9587   B5 13      L9587     LDA INBUFL,X
9589   86 57                STX FMTBEG
958B   F0 32                BEQ L95BF
958D   C9 3E                CMP #$3E
958F   F0 07                BEQ L9598
9591   C9 23                CMP #$23
9593   F0 03                BEQ L9598
9595   E8                   INX
9596   D0 EF                BNE L9587
9598   86 57      L9598     STX FMTBEG
959A   E8         L959A     INX
959B   B5 13                LDA INBUFL,X
959D   C9 23                CMP #$23
959F   F0 F9                BEQ L959A
95A1   C9 2E                CMP #$2E
95A3   D0 1D                BNE L95C2
95A5   CA                   DEX
95A6   86 58                STX FMTDOT
95A8   E8                   INX
95A9   E8                   INX
95AA   B5 13                LDA INBUFL,X
95AC   C9 23                CMP #$23
95AE   F0 03                BEQ L95B3
95B0   4C 0C AC             JMP EVAL
95B3   E8         L95B3     INX
95B4   B5 13                LDA INBUFL,X
95B6   C9 23                CMP #$23
95B8   F0 F9                BEQ L95B3
95BA   CA                   DEX
95BB   86 59                STX FMTEND
95BD   38         L95BD     SEC
95BE   60         L95BE     RTS
95BF   18         L95BF     CLC
95C0   90 FC                BCC L95BE
95C2   CA         L95C2     DEX
95C3   86 58                STX FMTDOT
95C5   86 59                STX FMTEND
95C7   D0 F4                BNE L95BD
95C9   4C A7 94   L95C9     JMP L94A7
95CC   A6 57      L95CC     LDX FMTBEG
95CE   A8                   TAY
95CF   F0 27                BEQ L95F8
95D1   A5 5A                LDA $5A
95D3   10 3B                BPL L9610
95D5   B5 13                LDA INBUFL,X
95D7   C9 3E                CMP #$3E
95D9   F0 1D                BEQ L95F8
95DB   A0 00                LDY #$00
95DD   B1 71      L95DD     LDA ($71),Y
95DF   95 13      L95DF     STA INBUFL,X
95E1   C8                   INY
95E2   E8                   INX
95E3   C4 AC      L95E3     CPY $AC
95E5   B0 07                BCS L95EE
95E7   E4 59      L95E7     CPX FMTEND
95E9   F0 F2                BEQ L95DD
95EB   90 F0                BCC L95DD
95ED   60         L95ED     RTS
95EE   A9 20      L95EE     LDA #$20
95F0   E4 59                CPX FMTEND
95F2   F0 EB                BEQ L95DF
95F4   90 E9                BCC L95DF
95F6   B0 F5                BCS L95ED
95F8   A6 59      L95F8     LDX FMTEND
95FA   C0 00      L95FA     CPY #$00
95FC   F0 0E                BEQ L960C
95FE   88         L95FE     DEY
95FF   B1 71                LDA ($71),Y
9601   95 13      L9601     STA INBUFL,X
9603   E4 57                CPX FMTBEG
9605   F0 E6                BEQ L95ED
9607   CA                   DEX
9608   C0 00                CPY #$00
960A   D0 F2                BNE L95FE
960C   A9 20      L960C     LDA #$20
960E   D0 F1                BNE L9601
9610   C0 06      L9610     CPY #$06
9612   90 1E                BCC L9632
9614   88                   DEY
9615   88                   DEY
9616   88                   DEY
9617   88                   DEY
9618   B1 71                LDA ($71),Y
961A   C9 45                CMP #$45
961C   D0 14                BNE L9632
961E   A0 2A      L961E     LDY #$2A
9620   A6 57                LDX FMTBEG
9622   B5 13      L9622     LDA INBUFL,X
9624   C9 2E                CMP #$2E
9626   D0 01                BNE L9629
9628   E8                   INX
9629   94 13      L9629     STY INBUFL,X
962B   E4 59                CPX FMTEND
962D   B0 BE                BCS L95ED
962F   E8                   INX
9630   D0 F0                BNE L9622
9632   A0 00      L9632     LDY #$00
9634   B1 71                LDA ($71),Y
9636   C9 20                CMP #$20
9638   D0 0D                BNE L9647
963A   A5 71                LDA $71
963C   18                   CLC
963D   69 01                ADC #$01
963F   85 71                STA $71
9641   90 02                BCC L9645
9643   E6 72                INC $72
9645   C6 AC      L9645     DEC $AC
9647   B1 71      L9647     LDA ($71),Y
9649   C9 2E                CMP #$2E
964B   F0 07                BEQ L9654
964D   C4 AC                CPY $AC
964F   B0 03                BCS L9654
9651   C8                   INY
9652   D0 F3                BNE L9647
9654   98         L9654     TYA
9655   F0 0A                BEQ L9661
9657   88                   DEY
9658   4C 9D 94             JMP L949D
965B   F0 02      L965B     BEQ L965F
965D   B0 BF                BCS L961E
965F   C8         L965F     INY
9660   98                   TYA
9661   48         L9661     PHA
9662   A6 57                LDX FMTBEG
9664   B5 13                LDA INBUFL,X
9666   C9 3E                CMP #$3E
9668   D0 28                BNE L9692
966A   A6 58                LDX FMTDOT
966C   20 FA 95             JSR L95FA
966F   A6 57                LDX FMTBEG
9671   B5 13      L9671     LDA INBUFL,X
9673   C9 20                CMP #$20
9675   F0 10                BEQ L9687
9677   C9 2D                CMP #$2D
9679   D0 1C                BNE L9697
967B   48                   PHA
967C   A9 30                LDA #$30
967E   95 13                STA INBUFL,X
9680   A6 57                LDX FMTBEG
9682   68                   PLA
9683   95 13                STA INBUFL,X
9685   D0 10                BNE L9697
9687   A9 30      L9687     LDA #$30
9689   95 13                STA INBUFL,X
968B   E4 58                CPX FMTDOT
968D   B0 08                BCS L9697
968F   E8                   INX
9690   10 DF                BPL L9671
9692   A6 58      L9692     LDX FMTDOT
9694   20 FA 95             JSR L95FA
9697   68         L9697     PLA
9698   A8                   TAY
9699   C4 AC                CPY $AC
969B   B0 1E                BCS L96BB
969D   C8                   INY
969E   A6 58                LDX FMTDOT
96A0   E8                   INX
96A1   E8                   INX
96A2   20 E7 95             JSR L95E7
96A5   A6 58      L96A5     LDX FMTDOT
96A7   EA                   NOP
96A8   EA                   NOP
96A9   B5 13      L96A9     LDA INBUFL,X
96AB   C9 20                CMP #$20
96AD   D0 04                BNE L96B3
96AF   A9 30                LDA #$30
96B1   95 13                STA INBUFL,X
96B3   E8         L96B3     INX
96B4   E4 59                CPX FMTEND
96B6   F0 F1                BEQ L96A9
96B8   90 EF                BCC L96A9
96BA   60         L96BA     RTS
96BB   A6 58      L96BB     LDX FMTDOT
96BD   E4 59                CPX FMTEND
96BF   F0 F9                BEQ L96BA
96C1   E8                   INX
96C2   E8                   INX
96C3   20 E3 95             JSR L95E3
96C6   B0 DD                BCS L96A5
96C8   20 62 91   CMDOUT    JSR CMDCHAR
96CB   20 AE B3             JSR CHROUT
96CE   18                   CLC
96CF   8A                   TXA
96D0   6D 3A 01             ADC $013A
96D3   CD 3E 01             CMP $013E
96D6   90 05                BCC L96DD
96D8   F0 03                BEQ L96DD
96DA   4C 88 AE             JMP FRMEVL1
96DD   8D 39 01   L96DD     STA $0139
96E0   20 01 AC             JSR NEWSTMT
96E3   60                   RTS
96E4   20 C8 96   GSCMD     JSR CMDOUT
96E7   20 C1 AA             JSR CHKNUM
96EA   A5 5F                LDA $5F
96EC   10 2D                BPL L971B
96EE   20 B6 B2   L96EE     JSR CRLF
96F1   85 AC                STA $AC
96F3   A0 00                LDY #$00
96F5   AE 3B 01             LDX $013B
96F8   C4 AC      L96F8     CPY $AC
96FA   B0 1C                BCS L9718
96FC   98                   TYA
96FD   48                   PHA
96FE   B1 71                LDA ($71),Y
9700   8D 3F 01             STA $013F
9703   AC 3A 01             LDY $013A
9706   CC 39 01             CPY $0139
9709   B0 0B                BCS L9716
970B   20 1D 93             JSR CMDSTORE
970E   C8                   INY
970F   8C 3A 01             STY $013A
9712   68                   PLA
9713   A8                   TAY
9714   C8                   INY
9715   10 E1                BPL L96F8
9717   68                   PLA
9718   4C C2 00   L9718     JMP CHRGOTV
971B   20 6E B9   L971B     JSR INPUT
971E   20 AE B0             JSR CHRIN
9721   4C EE 96             JMP L96EE
9724   20 C8 96   GTCMD     JSR CMDOUT
9727   20 0B AD             JSR FRMEVL
972A   85 97                STA $97
972C   84 98                STY $98
972E   A5 5F                LDA $5F
9730   48                   PHA
9731   AE 3B 01             LDX $013B
9734   AC 3A 01             LDY $013A
9737   A9 04      L9737     LDA #$04
9739   CC 39 01             CPY $0139
973C   B0 06                BCS L9744
973E   8D 3F 01             STA $013F
9741   20 1D 93             JSR CMDSTORE
9744   20 50 97   L9744     JSR KEYWAIT
9747   99 13 00             STA INBUFL+$0000,Y
974A   20 1D 93             JSR CMDSTORE
974D   C8                   INY
974E   10 E7                BPL L9737
9750   20 00 FD   KEYWAIT   JSR GETKEY
9753   8D 3F 01             STA $013F
9756   C9 0D                CMP #$0D
9758   F0 21                BEQ L977B
975A   C9 1C                CMP #$1C
975C   F0 06                BEQ L9764
975E   CC 39 01             CPY $0139
9761   B0 ED                BCS KEYWAIT
9763   60                   RTS
9764   CC 39 01   L9764     CPY $0139
9767   B0 08                BCS L9771
9769   A9 20                LDA #$20
976B   8D 3F 01             STA $013F
976E   20 1D 93             JSR CMDSTORE
9771   CC 3A 01   L9771     CPY $013A
9774   F0 01                BEQ L9777
9776   88                   DEY
9777   68         L9777     PLA
9778   68                   PLA
9779   D0 BC                BNE L9737
977B   68         L977B     PLA
977C   68                   PLA
977D   CC 39 01             CPY $0139
9780   B0 08                BCS L978A
9782   A9 20                LDA #$20
9784   8D 3F 01             STA $013F
9787   20 1D 93             JSR CMDSTORE
978A   A9 00      L978A     LDA #$00
978C   99 13 00             STA INBUFL+$0000,Y
978F   A8                   TAY
9790   18                   CLC
9791   AD 3A 01             LDA $013A
9794   69 13                ADC #$13
9796   20 AE B0             JSR CHRIN
9799   68                   PLA
979A   2A                   ROL A
979B   20 CD A7             JSR GETBYT
979E   4C C2 00             JMP CHRGOTV
97A1   20 AE B3   RDCMD     JSR CHROUT
97A4   8E 3A 01             STX $013A
97A7   20 01 AC             JSR NEWSTMT
97AA   AE 3A 01             LDX $013A
97AD   F0 17                BEQ L97C6
97AF   A5 C3      L97AF     LDA TXTPTR
97B1   48                   PHA
97B2   A5 C4                LDA TXTPTRH
97B4   48                   PHA
97B5   20 C2 00             JSR CHRGOTV
97B8   20 4F A9             JSR PTRGET
97BB   68                   PLA
97BC   85 C4                STA TXTPTRH
97BE   68                   PLA
97BF   85 C3                STA TXTPTR
97C1   CE 3A 01             DEC $013A
97C4   D0 E9                BNE L97AF
97C6   20 0B AD   L97C6     JSR FRMEVL
97C9   4C C2 00             JMP CHRGOTV
97CC   B0 03      LINSTEP   BCS L97D1
97CE   4C 88 AE   L97CE     JMP FRMEVL1
97D1   AE 3C 01   L97D1     LDX LINESIZE
97D4   8A         L97D4     TXA
97D5   4A                   LSR A
97D6   B0 0C                BCS L97E4
97D8   AA                   TAX
97D9   A5 F1                LDA TMPHI
97DB   4A                   LSR A
97DC   85 F1                STA TMPHI
97DE   66 F0                ROR TMPLO
97E0   90 F2                BCC L97D4
97E2   B0 EA                BCS L97CE
97E4   A5 F1      L97E4     LDA TMPHI
97E6   D0 E6                BNE L97CE
97E8   60                   RTS
97E9   0D         OKREADY   .BYTE $0D          ;%00001101
97EA   0A                   .BYTE $0A          ;%00001010
97EB   0A                   .BYTE $0A          ;%00001010
97EC   4F                   .BYTE $4F          ;%01001111 'O'
97ED   4B                   .BYTE $4B          ;%01001011 'K'
97EE   0D                   .BYTE $0D          ;%00001101
97EF   52                   .BYTE $52          ;%01010010 'R'
97F0   65                   .BYTE $65          ;%01100101 'e'
97F1   61                   .BYTE $61          ;%01100001 'a'
97F2   64                   .BYTE $64          ;%01100100 'd'
97F3   79                   .BYTE $79          ;%01111001 'y'
97F4   0D                   .BYTE $0D          ;%00001101
97F5   0A                   .BYTE $0A          ;%00001010
97F6   0A                   .BYTE $0A          ;%00001010
97F7   00                   .BYTE $00          ;%00000000
97F8   0D                   .BYTE $0D          ;%00001101
97F9   3A                   .BYTE $3A          ;%00111010 ':'
97FA   32                   .BYTE $32          ;%00110010 '2'
97FB   31                   .BYTE $31          ;%00110001 '1'
97FC   39                   .BYTE $39          ;%00111001 '9'
97FD   20                   .BYTE $20          ;%00100000 ' '
97FE   02                   .BYTE $02          ;%00000010
97FF   00                   .BYTE $00          ;%00000000
                            .END

;auto-generated symbols and labels
 L9051      $9051
 L9065      $9065
 L9111      $9111
 L9121      $9121
 L9144      $9144
 L9157      $9157
 L9178      $9178
 L9396      $9396
 L9406      $9406
 L9409      $9409
 L9437      $9437
 L9444      $9444
 L9450      $9450
 L9453      $9453
 L9472      $9472
 L9490      $9490
 L9503      $9503
 L9509      $9509
 L9512      $9512
 L9537      $9537
 L9548      $9548
 L9560      $9560
 L9571      $9571
 L9574      $9574
 L9587      $9587
 L9598      $9598
 L9601      $9601
 L9610      $9610
 L9622      $9622
 L9629      $9629
 L9632      $9632
 L9645      $9645
 L9647      $9647
 L9654      $9654
 L9661      $9661
 L9671      $9671
 L9687      $9687
 L9692      $9692
 L9697      $9697
 L9716      $9716
 L9718      $9718
 L9737      $9737
 L9744      $9744
 L9764      $9764
 L9771      $9771
 L9777      $9777
 L906D      $906D
 L907B      $907B
 L906F      $906F
 L90E3      $90E3
 L917B      $917B
 L91D7      $91D7
 L91D4      $91D4
 L924A      $924A
 L91CB      $91CB
 L91D0      $91D0
 L92A1      $92A1
 L92B0      $92B0
 L92A8      $92A8
 L92AB      $92AB
 L92F0      $92F0
 L92CD      $92CD
 L92D6      $92D6
 L933E      $933E
 L932B      $932B
 L938C      $938C
 L935A      $935A
 L937C      $937C
 L936C      $936C
 L938F      $938F
 L93BE      $93BE
 L93AE      $93AE
 L93D3      $93D3
 L93EA      $93EA
 L93F9      $93F9
 L943F      $943F
 L965B      $965B
 L95CC      $95CC
 L94FD      $94FD
 L94E3      $94E3
 L94D4      $94D4
 L95C9      $95C9
 L94EC      $94EC
 L94BC      $94BC
 L94B7      $94B7
 L950D      $950D
 L951F      $951F
 L953D      $953D
 L95BF      $95BF
 L959A      $959A
 L95C2      $95C2
 L95B3      $95B3
 L95BE      $95BE
 L95BD      $95BD
 L94A7      $94A7
 L95F8      $95F8
 L95EE      $95EE
 L95DD      $95DD
 L95DF      $95DF
 L95ED      $95ED
 L960C      $960C
 L95FE      $95FE
 L949D      $949D
 L965F      $965F
 L961E      $961E
 L95FA      $95FA
 L96BB      $96BB
 L95E7      $95E7
 L96B3      $96B3
 L96A9      $96A9
 L96BA      $96BA
 L95E3      $95E3
 L96A5      $96A5
 L96DD      $96DD
 L971B      $971B
 L96F8      $96F8
 L96EE      $96EE
 L977B      $977B
 L978A      $978A
 L97C6      $97C6
 L97AF      $97AF
 L97D1      $97D1
 L97E4      $97E4
 L97D4      $97D4
 L97CE      $97CE

;defined symbols used as labels
 CMD_SCR    $9000
 CMD_SET    $9004
 CMD_TEST   $9008
 CMD_HLIN   $9012
 CMD_BLK    $9017
 CMD_GO     $9023
 CMD_PRUS   $9026
 CMD_PUTA   $9031
 CMD_INAT   $9037
 CMD_GT     $9042
 CMD_GS     $9045
 RDHEX4     $9049
 CMDCHAR    $9162
 CMDJUMPT   $9182
 READYMSG   $9288
 SCRCMD     $9308
 SETCMD     $9346
 HLINCMD    $9411
 KEYSCAN    $9431
 BLKCMD     $9479
 INDJMP     $9482
 GETADDR    $9485
 GETCMD     $9497
 PRINBUF    $9510
 EXECADDR   $9523
 SCANMARK   $9581
 GTCMD      $9724
 KEYWAIT    $9750
 HEXIN      $905E
 GETADDR2   $90D4
 LINSTEP    $97CC
 CMDINIT    $907E
 TESTCMD    $937F
 VLINCMD    $93BF
 GOCMD      $94B0
 GSCMD      $96E4
 RDCMD      $97A1
 INATCMD    $90E6
 PUTATCMD   $90AF
 LINCMP     $90F1
 EXTSCAN    $92DF
 EXTCHAR    $92ED
 EXTNEXT    $92E1
 CMDSTORE   $931D
 CMDCOPY    $93A8
 CMDOUT     $96C8
 TMPLO        $F0
 TMPHI        $F1
 TMP2LO       $F2
 TMP2HI       $F3
 FMTBEG       $57
 FMTDOT       $58
 FMTEND       $59
 CMD_VLIN   $900D
 CMD_GET    $901F
 CMD_RD     $903F
 CMD_QUOT   $901E
 CMD_WI     $903C
 CMD_CWI    $901B
 FRMEVL1    $AE88
 CMDEXIT    $91BA
 OKREADY    $97E9
 EXTDISP    $929B
 GETKEY     $FD00
 KEYWRT     $FCBE
 KEY2XR     $FCC6
 OUTVEC     $FFEE
 BASICV     $0000
 READYV       $03
 CHRGOTV      $C2
 TXTPTR       $C3
 TXTPTRH      $C4
 STMTV        $C5
 STMTCTV    $00C9
 KEYDSPV      $D3
 NEWSTMTV   $0134
 LINESIZE   $013C
 EXECPTRL     $11
 EXECPTRH     $12
 INBUFL       $13
 INBUFH       $14
 CMDEXEC    $00BC
 EVALSTK    $A212
 PREPWMST   $A274
 BASCONT    $A5C2
 WARMSTRT   $A491
 GETADR     $A6BC
 SYNCHR     $A70C
 CHRPUT     $A74F
 GETBYT     $A7CD
 PRNTCRLF   $A8E5
 STMTDISP   $A86C
 PRINT      $A8C3
 PTRGET     $A94F
 CHKCOM     $AAAD
 CHKNUM     $AAC1
 NEWSTMT    $AC01
 EVAL       $AC0C
 FRMEVL     $AD0B
 INT2FAC    $AFC1
 CHRIN      $B0AE
 CRLF       $B2B6
 CHROUT     $B3AE
 ERRDISP    $B408
 INPUT      $B96E

